(lp0
Vmeasure bond quarterly
p1
aVpractices in
p2
aVclosed session maximum
p3
aVthe second
p4
aVdynamic
p5
aVall
p6
aVdynamic and multicultural
p7
aVnegotiators closed
p8
aVboard policy
p9
aVwill be as
p10
aVbeen considered
p11
aVaids or services
p12
aVconsent agenda approved
p13
aVeach item on
p14
aVunder
p15
aVto address
p16
aVvice president and
p17
aVboard will
p18
aVreport at
p19
aVbe allotted to
p20
aVplease contact nancy
p21
aVmeeting board
p22
aV20 minutes to
p23
aVapproval on all
p24
aVguidelines
p25
aVsecond
p26
aVstreet
p27
aVprotection resolution
p28
aVthe board meeting
p29
aVdiscussed and or
p30
aVconduct
p31
aVnotice is hereby
p32
aVfor bids for
p33
aVis presented guidelines
p34
aVdeemed
p35
aVreport ccfs 311q
p36
aVtime for the
p37
aV48 hours
p38
aVprotection
p39
aVclosed session pursuant
p40
aVitems
p41
aVbank accounts
p42
aVreport of
p43
aVreports
p44
aVstreet hollister california
p45
aVcounty
p46
aVregular meeting board
p47
aVmember of
p48
aV54957
p49
aVwarrants drawn on
p50
aVca 95020 www
p51
aVadministrative services closed
p52
aVcall
p53
aVclosed session 00
p54
aVis welcomed to
p55
aVkinsella dba
p56
aVdiscussion of these
p57
aVis presented
p58
aVhereby
p59
aVaward
p60
aVin full and
p61
aVto be routine
p62
aVmust
p63
aVorganizations ccpro award
p64
aVroom
p65
aVtraditional and emerging
p66
aVrights
p67
aVrights and
p68
aVthank you
p69
aVtrust investment portfolio
p70
aVinnovative practices in
p71
aVfor liability
p72
aVconduct will be
p73
aViii action
p74
aVapproval on
p75
aVtuesday may
p76
aVgavilan joint community
p77
aVapproval of
p78
aVelection order
p79
aVboard maximum
p80
aVtrustee
p81
aVron hannon
p82
aVccpro
p83
aVrights and responsibilities
p84
aVspeaker with maximum
p85
aVkinsella eric
p86
aVcarry over authority
p87
aVindividuals wishing
p88
aV1006
p89
aVpresident
p90
aVon all consent
p91
aVscience achievement program
p92
aVagenda the
p93
aVand 2015 16
p94
aVapproving minor modifications
p95
aVchief instruction
p96
aVthe administration
p97
aVlitter free
p98
aVare considered
p99
aVmeeting is june
p100
aVcollege public relations
p101
aVorder
p102
aVorder 00
p103
aVservices prepare
p104
aVwelcomed
p105
aVconsent
p106
aVover
p107
aVso at the
p108
aVbids for
p109
aVinnovative
p110
aV2015 16 carry
p111
aVgilbane
p112
aVfor the public
p113
aVcampus and
p114
aVpersonal
p115
aVnew bank
p116
aVthe election
p117
aVwriting
p118
aVmust submit the
p119
aVweeks
p120
aV408
p121
aVso during
p122
aV16 carry over
p123
aVof election specifications
p124
aVone
p125
aVprior to the
p126
aVbank
p127
aVthe agendas
p128
aVbackgrounds
p129
aVall backgrounds
p130
aVreasonable
p131
aVeach
p132
aVamericans
p133
aV375
p134
aVbond
p135
aVor to
p136
aVfinancial
p137
aVreport ccfs
p138
aVas recommended
p139
aV5055 santa teresa
p140
aVvote
p141
aVand adopted as
p142
aVthe administration recommends
p143
aVaids
p144
aVleave report
p145
aVpathways career
p146
aVnon agenda
p147
aVand administrative
p148
aVhereby given
p149
aVat least 48
p150
aVprogram mesa
p151
aVconsent agenda it
p152
aVfree
p153
aVheld the
p154
aVkeep gavilan
p155
aVcode section 54957
p156
aVbenefit trust
p157
aVbe held
p158
aVkinsella ron
p159
aVthe public this
p160
aVrelations
p161
aVheld the second
p162
aVnot on the
p163
aVfor the stem
p164
aVelectronic
p165
aVthe agendas regular
p166
aVvice presidents
p167
aVlisted
p168
aVdo so at
p169
aVfor success
p170
aVexecutive vice
p171
aVso during the
p172
aVto government code
p173
aVboard vote unless
p174
aVno disruptive
p175
aVpublic will
p176
aVboard policies and
p177
aVproject
p178
aV2016 gavilan
p179
aVguidelines for
p180
aVpowers
p181
aVproject assignment
p182
aVplease contact
p183
aVduring the
p184
aVsanta clara county
p185
aVno 1004 approving
p186
aV848 4800
p187
aVspecifications of
p188
aVshall be
p189
aVplease help
p190
aVsteven kinsella ron
p191
aVin both
p192
aVrecommended
p193
aVauthority for
p194
aVcultivates learning
p195
aVshall
p196
aVwarrants drawn
p197
aVregular
p198
aVexpenditures report
p199
aVthe
p200
aVby the board
p201
aVthat specific
p202
aVto government
p203
aVapproving minor
p204
aVnon agenda item
p205
aVmeeting including auxiliary
p206
aVjoint powers authority
p207
aVto make
p208
aVoff site improvements
p209
aVmeeting board of
p210
aVif you
p211
aVnancy bailey at
p212
aVmeeting minutes
p213
aVmeetings
p214
aVteresa
p215
aVstaff or public
p216
aVchief instruction officer
p217
aVparticipate
p218
aVnancy bailey
p219
aVwith labor negotiators
p220
aVprofessional support
p221
aVdiscussion of
p222
aVto the superintendent
p223
aVdo
p224
aVdisruptive conduct
p225
aVpledge of
p226
aVindividuals wishing to
p227
aVgavilan joint
p228
aVreport
p229
aVdr
p230
aVprogram and mathematics
p231
aVat least
p232
aVitem appear
p233
aVrelease
p234
aVto ensure accessibility
p235
aVthe public will
p236
aVhealth benefit trust
p237
aVdba cpa superintendent
p238
aVreasonable arrangements
p239
aVsubject
p240
aV00
p241
aV375 fifth
p242
aVappointment vice
p243
aVdrawn
p244
aVspecial assistance
p245
aVpreserve
p246
aVmathematics engineering
p247
aVcommunity college
p248
aVto joint
p249
aVallotted to
p250
aVin the agendas
p251
aVparticular agenda
p252
aVminutes to subject
p253
aVwith disabilities
p254
aVtrustees shall be
p255
aVacted on by
p256
aVno disruptive conduct
p257
aVat march 31
p258
aVmonthly financial
p259
aVwelcomed to address
p260
aVpresident of
p261
aVmember of the
p262
aVrequests
p263
aVcollege district
p264
aVmaximum of minutes
p265
aVgovernment code section
p266
aVthe agenda must
p267
aVthe election order
p268
aVboard meeting room
p269
aVparticipate at this
p270
aVrepresentative to
p271
aVtrust
p272
aVstudent trustee
p273
aVconference
p274
aVbeen
p275
aVitems individuals wishing
p276
aVconference with labor
p277
aVand or
p278
aVrequest for
p279
aVpersonal growth
p280
aVconsolidation request
p281
aVpublic employee discipline
p282
aVand 2015
p283
aVproperty
p284
aVon an
p285
aVsworn police
p286
aVis
p287
aVit
p288
aVthat closed
p289
aViv
p290
aVii
p291
aVin
p292
aV5055
p293
aVif
p294
aVno 1006
p295
aVno 1005
p296
aVno 1004
p297
aVmake
p298
aVany
p299
aVto have an
p300
aVsite improvements package
p301
aVscheduled board
p302
aVstudents for success
p303
aV4711 notification
p304
aV2015 16
p305
aVbe permitted at
p306
aVquarterly financial status
p307
aVcommittee minutes april
p308
aVemployee appointment vice
p309
aVacademic
p310
aVcontact
p311
aVitems and
p312
aVincluding auxiliary
p313
aVgavilan college board
p314
aVat march
p315
aVmeasure bond
p316
aVin compliance with
p317
aVsabbatical
p318
aVprepare students for
p319
aVto trustee areas
p320
aVthe second tuesday
p321
aVboard
p322
aV408 848 4800
p323
aVappointment superintendent
p324
aVhelp keep
p325
aVinvestment portfolio
p326
aVtrustee areas
p327
aVdetermine what items
p328
aVspecific
p329
aVofficer
p330
aVsuperintendent president will
p331
aVretiree health benefit
p332
aVwith maximum
p333
aVpayroll warrants drawn
p334
aVwww
p335
aVold
p336
aVof trustees meeting
p337
aVvice president
p338
aVboard member
p339
aVstudent services
p340
aVvote unless
p341
aVkinsella ron hannon
p342
aVservices program
p343
aVelection
p344
aVemerging learning environments
p345
aVunless
p346
aVand electronic
p347
aViv closing items
p348
aVfor
p349
aVnotification
p350
aV206
p351
aVcomments
p352
aVtrustees
p353
aVensure accessibility
p354
aVmay be
p355
aVcertify the appointment
p356
aVon particular
p357
aVnegotiator dr steven
p358
aVlisted under
p359
aVpermitted
p360
aVagendas regular
p361
aVratification of two
p362
aVensure
p363
aVand multicultural
p364
aVtrio student support
p365
aVca 95020
p366
aVsteven kinsella dba
p367
aVcouncil chambers
p368
aVpermitted at any
p369
aVretiree health
p370
aVfinancial report
p371
aVto board
p372
aVsupport
p373
aVmaximum of 20
p374
aVpublic is welcomed
p375
aVfor the coyote
p376
aVenable the district
p377
aVremoved
p378
aVthe comments
p379
aVbe taken on
p380
aVhave been considered
p381
aVunderstood
p382
aVii open
p383
aVbids
p384
aVmaximum
p385
aVdismissal release closed
p386
aVmay 10 2016
p387
aVstatus report at
p388
aVminor
p389
aVact if
p390
aVlike setting thank
p391
aVservices please contact
p392
aVtrio
p393
aVemployee discipline dismissal
p394
aVto ensure
p395
aVno
p396
aVnegotiators
p397
aVsetting
p398
aVunder the consent
p399
aVroll
p400
aVconduct will
p401
aVupdate
p402
aVapril 12 2016
p403
aVcommunity college district
p404
aVtransfers
p405
aVcollege president
p406
aVappointment executive vice
p407
aV11 information
p408
aVconsent items
p409
aVof administrative
p410
aVtime
p411
aVof trustees
p412
aVitems each
p413
aVron
p414
aVthe stem meadow
p415
aVcounty registrar
p416
aVvote unless member
p417
aVand emerging
p418
aVbe discussed and
p419
aVsuperintendent president
p420
aVat the
p421
aVpresident of student
p422
aVtwo new bank
p423
aVsupport staff
p424
aVany gavilan
p425
aVremoved from the
p426
aVbond quarterly
p427
aVconsolidation
p428
aVliability
p429
aVitems will be
p430
aVof the election
p431
aVimprovements package
p432
aVcollege mission
p433
aVpresented
p434
aVleave
p435
aVitem
p436
aVgavilan college
p437
aV95020 www gavilan
p438
aVsanta clara
p439
aVunrepresented
p440
aVregularly scheduled
p441
aVappear
p442
aVmodifications to
p443
aVminutes will
p444
aVassistance
p445
aVwriting to the
p446
aVfor comments
p447
aVratification of agreements
p448
aVopen session
p449
aVportfolio status as
p450
aVaddress
p451
aVof each month
p452
aVin students
p453
aVbe discussed
p454
aVmeeting will
p455
aVthe appointment
p456
aVgilbane building company
p457
aVto order 00
p458
aVto access the
p459
aVtuesday of
p460
aVretiree
p461
aVthe board will
p462
aVthere is no
p463
aVlearning environments
p464
aVare acted on
p465
aVrequests that specific
p466
aVnext regularly scheduled
p467
aVas of
p468
aVcurriculum
p469
aVthe district
p470
aVapproving
p471
aVdr steven
p472
aVorganizations
p473
aVinstructional
p474
aVportfolio status
p475
aVemployee organization gcfa
p476
aVdiscipline dismissal
p477
aVstudent representative
p478
aVstudents for
p479
aVcouncil
p480
aVat this meeting
p481
aVcompliance with the
p482
aVagency negotiator
p483
aVagendas
p484
aVservices prepare students
p485
aVon non agenda
p486
aVauxiliary aids or
p487
aVdiscussion
p488
aVsworn
p489
aVjune 14 2016
p490
aVitems prior
p491
aVbids for sworn
p492
aVmay
p493
aVinstruction officer
p494
aVthat the
p495
aVupdate on
p496
aVensure accessibility to
p497
aVto each
p498
aVsetting thank you
p499
aVso
p500
aVcommunity college public
p501
aVappointment executive
p502
aVlisted as follows
p503
aVand personal
p504
aV20 minutes
p505
aVwishing
p506
aVblvd gilroy ca
p507
aVand administrative procedures
p508
aVpolice
p509
aVthank
p510
aVdevelopmental education and
p511
aVprocedures
p512
aVhowever no action
p513
aVpolicy
p514
aVnon
p515
aV2016 gavilan college
p516
aVregular board
p517
aVand chief
p518
aVnot
p519
aV00 open
p520
aVfifth street
p521
aVthe request in
p522
aVwith labor
p523
aVon particular agenda
p524
aVand preserve its
p525
aVsteven kinsella eric
p526
aVcomments individuals
p527
aVitem on the
p528
aVconsent agenda
p529
aVelection specifications of
p530
aVyear
p531
aVbenefit trust investment
p532
aVthat the administration
p533
aVeach month
p534
aVwill determine what
p535
aVmaximum of
p536
aVcalifornia
p537
aVsuccess in dynamic
p538
aVbe allotted
p539
aVis welcomed
p540
aVagenda approved by
p541
aVrelease closed session
p542
aVmid year
p543
aVcoyote valley
p544
aVmotion
p545
aVregistrar
p546
aVdevelopmental education
p547
aV1005
p548
aV1004
p549
aVwishing to address
p550
aVthrough innovative
p551
aVon the
p552
aVis june 14
p553
aVnotification at least
p554
aVassistance to access
p555
aVremoved from
p556
aVthis meeting including
p557
aVcarry
p558
aVhave been
p559
aVopen
p560
aVmesa
p561
aVhours prior
p562
aVcity
p563
aVgiven
p564
aVboard staff or
p565
aVaddress the board
p566
aVdistrict
p567
aVwith the
p568
aVwww gavilan
p569
aVcollege board of
p570
aVgilbane building
p571
aVemployee organization unrepresented
p572
aVbackgrounds and
p573
aVsubmit the
p574
aVccfs 311q
p575
aVthat
p576
aVto make reasonable
p577
aVare acted
p578
aVamericans with
p579
aV11
p580
aV10
p581
aV12
p582
aV14
p583
aV16
p584
aVit is understood
p585
aVand property
p586
aVminor modifications
p587
aVon by the
p588
aVscheduled meeting
p589
aVstudents of all
p590
aVand
p591
aVdiscipline dismissal release
p592
aVemployee discipline
p593
aVbe routine and
p594
aVall backgrounds and
p595
aVwhat items
p596
aV848 4711
p597
aVregular meetings
p598
aVcompany project
p599
aVitems listed under
p600
aVdismissal release
p601
aVbailey
p602
aVnew
p603
aVsworn police officer
p604
aVsession maximum of
p605
aVtrustee areas requested
p606
aVand may
p607
aVstudent services closed
p608
aVminor modifications to
p609
aVaction items
p610
aVconsidered
p611
aVrequested by the
p612
aV408 848 4711
p613
aVprofessional
p614
aVcompliance with
p615
aVpursuant
p616
aVboard member comments
p617
aVwith maximum of
p618
aVeric ramones
p619
aVitems and may
p620
aVfifth
p621
aVpresident closed
p622
aVassignment amendment for
p623
aVthe consent agenda
p624
aVon non
p625
aVunder the
p626
aVof agreements
p627
aVeach speaker
p628
aVthe comments from
p629
aVof all backgrounds
p630
aVof student services
p631
aVvalley off site
p632
aVat any
p633
aVdo so during
p634
aVrecommends approval on
p635
aVitems individuals
p636
aVkinsella eric ramones
p637
aVtrustees shall
p638
aVthis is time
p639
aVcollege
p640
aVtaken on
p641
aVminutes to
p642
aVramones
p643
aVmake reasonable arrangements
p644
aVis hereby given
p645
aVnotice
p646
aVwill be held
p647
aVpresented guidelines
p648
aVlopez
p649
aVfor sworn police
p650
aVcompany project assignment
p651
aVtwo weeks prior
p652
aVthere is
p653
aVapproval to
p654
aVan item
p655
aVappointment superintendent president
p656
aVboard meeting minutes
p657
aVabilities through
p658
aVwriting to
p659
aVlearning
p660
aVstudent support services
p661
aVcontact nancy
p662
aVcertify
p663
aVas of march
p664
aVagenda items
p665
aVmonthly financial report
p666
aVlike setting
p667
aVenable
p668
aVmeeting the board
p669
aVmay do so
p670
aVtwo weeks
p671
aVthese
p672
aVelectronic transfers
p673
aVis time
p674
aVcall to order
p675
aVif you need
p676
aVpolicies
p677
aVmarch 31 2016
p678
aVthe appointment of
p679
aVexpenditures
p680
aV12 2016
p681
aVadopted as
p682
aVeducation developmental education
p683
aVplease help keep
p684
aVpublic this is
p685
aVmay be taken
p686
aVstatus
p687
aVunless member of
p688
aVto access
p689
aVall community
p690
aVpresidents
p691
aVgavilan college mission
p692
aVtechnical education developmental
p693
aVand responsibilities
p694
aVold business
p695
aVheld under
p696
aVby the
p697
aV5055 santa
p698
aVactions
p699
aVact if you
p700
aVadopted as recommended
p701
aVenvironments transfer pathways
p702
aVnegotiators closed session
p703
aVof the
p704
aVcommittee minutes
p705
aVpractices in both
p706
aVinvestment portfolio status
p707
aVpublic requests that
p708
aVand preserve
p709
aVand emerging learning
p710
aVtuesday
p711
aVscheduled
p712
aV10 2016
p713
aVareas requested
p714
aVgavilan college litter
p715
aVworld
p716
aVin the
p717
aVstudent support
p718
aVgavilan edu 408
p719
aVbenefit
p720
aVadjournment
p721
aVsuperintendent
p722
aVagenda it
p723
aVpublic relations
p724
aVmulticultural world
p725
aVof election
p726
aVdrawn on district
p727
aVof voters
p728
aVthe request
p729
aVto trustee
p730
aVorganization unrepresented
p731
aVminutes april
p732
aVno action may
p733
aVitem may
p734
aVand personal growth
p735
aVbusiness
p736
aVdiscussed and
p737
aVachievement program
p738
aVis time for
p739
aVover authority
p740
aVagenda items individuals
p741
aVpark like
p742
aVon
p743
aVto address the
p744
aVpackage
p745
aVof
p746
aVdisabilities
p747
aVcommittee reports
p748
aVdiscussed
p749
aV848
p750
aVact
p751
aVor
p752
aVwill determine
p753
aVor services
p754
aVthe americans with
p755
aVregularly scheduled board
p756
aVaccounts
p757
aVdetermine
p758
aVprior to board
p759
aVtime it is
p760
aVprepare
p761
aVand board policy
p762
aVthere
p763
aVservices program and
p764
aVmodifications
p765
aVneed special
p766
aVover authority and
p767
aVrequest in
p768
aVvalley
p769
aVrecommends
p770
aVof 20
p771
aVone motion
p772
aVconsidered to
p773
aVspecial assistance to
p774
aVwith
p775
aVconference with
p776
aVheld under the
p777
aVthrough innovative practices
p778
aVfinancial status
p779
aV1004 approving
p780
aVpresident and
p781
aVorder and consolidation
p782
aV2016 and
p783
aVwill be included
p784
aVsupport services
p785
aVthe board
p786
aVgeneral
p787
aVas
p788
aVat
p789
aVan item appear
p790
aVcareer and technical
p791
aVpersonnel
p792
aVgavilan
p793
aVmathematics
p794
aVyou
p795
aVthe superintendent
p796
aVrequested
p797
aVaddress the
p798
aVenvironments transfer
p799
aVstudents
p800
aVincluded
p801
aVii open session
p802
aVbuilding
p803
aVpursuant to government
p804
aVthe trio student
p805
aVcpa
p806
aVcollege student equity
p807
aVboard president
p808
aVjoint powers
p809
aVtrio student
p810
aVresolution
p811
aVthe coyote
p812
aVstudent trustee rights
p813
aVto have
p814
aVclosed session
p815
aVemployee appointment
p816
aVmonth
p817
aVall community college
p818
aVsession 00
p819
aVto
p820
aVprogram
p821
aVis no
p822
aVappointment
p823
aVon the trio
p824
aVdisabilities act if
p825
aV2015 16 mid
p826
aVitems be discussed
p827
aVregular meetings are
p828
aVthe agenda the
p829
aVsocial science room
p830
aVpublic to
p831
aVagenda item may
p832
aVpublic to address
p833
aVgavilan college student
p834
aVfrom the public
p835
aVapproved by the
p836
aVpresident of administrative
p837
aVeach speaker with
p838
aVnegotiator
p839
aVinvestment
p840
aVsanta teresa blvd
p841
aVwhat
p842
aVmember comments
p843
aVsection
p844
aVconsent agenda are
p845
aVsection 54957
p846
aVkinsella
p847
aVpublic
p848
aVwishing to
p849
aVfull
p850
aVhours
p851
aVboard staff
p852
aV10 board committee
p853
aVcompliance
p854
aVprior
p855
aVorder of election
p856
aVsocial
p857
aVaction
p858
aVtrustee adrian lopez
p859
aVsession maximum
p860
aVmeetings are held
p861
aVjoint community college
p862
aV95020 www
p863
aVboard meeting
p864
aVtwo
p865
aVthe board maximum
p866
aVtaken
p867
aVacted on
p868
aVfull and adopted
p869
aVcompany
p870
aVis understood that
p871
aVsite
p872
aVparticular
p873
aVcpa superintendent president
p874
aVcoyote
p875
aVappointment of representative
p876
aV2016 and board
p877
aVscience
p878
aVcontact nancy bailey
p879
aVthe meeting
p880
aVbond quarterly financial
p881
aVmeeting including
p882
aVthese items prior
p883
aVaccept
p884
aVand multicultural world
p885
aVinformation
p886
aVorder and
p887
aVvice president of
p888
aVof representative to
p889
aVin closed session
p890
aVclara county
p891
aV311q
p892
aVccfs 311q at
p893
aVtrustee adrian
p894
aVstudent trustee adrian
p895
aVissue request for
p896
aVproject assignment amendment
p897
aVscheduled board meeting
p898
aVrepresentative to joint
p899
aVone motion there
p900
aVprotection resolution no
p901
aVcity council chambers
p902
aVbe held under
p903
aVas follows
p904
aVapproval of agenda
p905
aVtaken in
p906
aVpermitted at
p907
aVaction may be
p908
aVwhich is not
p909
aVgavilan edu
p910
aVhelp
p911
aVmission
p912
aVheld
p913
aVthrough
p914
aVcommittee
p915
aVits
p916
aV20
p917
aVdetermine what
p918
aVitems will
p919
aVcounty registrar of
p920
aVare held
p921
aVthat specific items
p922
aVbudget adjustment
p923
aVaccept bid
p924
aViv closing
p925
aVthe stem
p926
aVthe coyote valley
p927
aVcampus and preserve
p928
aVto joint powers
p929
aVproperty protection
p930
aVaction may
p931
aV48 hours prior
p932
aVadrian lopez
p933
aVin students of
p934
aVccpro award
p935
aVof these
p936
aVnew bank accounts
p937
aVof agenda
p938
aVmeeting minutes april
p939
aVservices closed
p940
aVhealth
p941
aVgilroy
p942
aVissue
p943
aVpowers authority
p944
aVconsidered in full
p945
aVclara county registrar
p946
aVagency negotiator dr
p947
aVscheduled meeting the
p948
aVtuesday may 10
p949
aVequity 2015
p950
aVdistrict to make
p951
aVhttp www
p952
aVand abilities through
p953
aVeducation and
p954
aVtrust investment
p955
aVorder of
p956
aVfees
p957
aVsession of
p958
aVmeadow
p959
aVenable the
p960
aVleast
p961
aVthe meeting will
p962
aVitems prior to
p963
aVall consent
p964
aVfor bids
p965
aVcall to
p966
aVand are acted
p967
aVregistrar of voters
p968
aVpark
p969
aVinstruction
p970
aVspeaker with
p971
aVfor sworn
p972
aVany action
p973
aVwill be allotted
p974
aVfor the
p975
aVcomments individuals wishing
p976
aVblvd gilroy
p977
aVgiven that closed
p978
aVtransfers drawn on
p979
aVthe public
p980
aVsubmit the request
p981
aVgilroy ca
p982
aVservices
p983
aVapproved
p984
aVachievement
p985
aVor services please
p986
aVitem which
p987
aVbe as follows
p988
aVtraditional
p989
aViii action items
p990
aVamendment for the
p991
aV11 information staff
p992
aVis june
p993
aVwith the americans
p994
aVsession
p995
aVitems each item
p996
aVclosing items
p997
aVthis meeting
p998
aVis hereby
p999
aVyou need special
p1000
aVequity
p1001
aVsecond tuesday
p1002
aVadministration recommends
p1003
aVthe board on
p1004
aVthe board of
p1005
aVpathways career and
p1006
aVduring
p1007
aVthe next
p1008
aV16 mid year
p1009
aVpublic employee appointment
p1010
aVpublic this
p1011
aVagenda must submit
p1012
aVreport of any
p1013
aVboard committee reports
p1014
aVstatus as of
p1015
aVor to otherwise
p1016
aVbe as
p1017
aVof allegiance
p1018
aVamendment for
p1019
aVpreserve its park
p1020
aVkinsella dba cpa
p1021
aVwith disabilities act
p1022
aVroutine and are
p1023
aVpresident will determine
p1024
aVare
p1025
aVchambers
p1026
aVat 408
p1027
aVplease
p1028
aVregular meeting
p1029
aV10 board
p1030
aVstudents of
p1031
aVdistrict to
p1032
aVon district
p1033
aVamericans with disabilities
p1034
aVnegotiator dr
p1035
aVtime it
p1036
aVmeeting is
p1037
aVthe consent
p1038
aVto be
p1039
aVassistance to
p1040
aVrelations organizations
p1041
aVacted
p1042
aVallegiance
p1043
aVcommunity
p1044
aVto the board
p1045
aVsecond tuesday of
p1046
aVagenda it is
p1047
aVspecific items be
p1048
aVapproval to certify
p1049
aVmonthly
p1050
aVits park
p1051
aVlabor negotiators
p1052
aVmeeting
p1053
aVtransfer pathways career
p1054
aVthe trio
p1055
aVroll call vote
p1056
aVdisruptive
p1057
aVas one
p1058
aVinnovative practices
p1059
aVduring the comments
p1060
aVon all
p1061
aVbudget
p1062
aVno action
p1063
aVthe superintendent president
p1064
aVcollege litter
p1065
aVvoters
p1066
aVitems listed
p1067
aVmeeting room
p1068
aVminutes april 12
p1069
aVregularly scheduled meeting
p1070
aVdisabilities act
p1071
aVboard committee
p1072
aVfrom the consent
p1073
aVcsea
p1074
aVarrangements to
p1075
aVroll call
p1076
aVbid for the
p1077
aVauthority for liability
p1078
aVcoyote valley off
p1079
aVassignment
p1080
aVlearning and personal
p1081
aVbid for
p1082
aVemployee organization
p1083
aVregistrar of
p1084
aVregular board meeting
p1085
aVcomments from the
p1086
aVall consent items
p1087
aVorganization
p1088
aVratification of
p1089
aVabilities
p1090
aVcollege litter free
p1091
aVat any gavilan
p1092
aV14 2016 gavilan
p1093
aVlisted under the
p1094
aVagenda item
p1095
aVofficers
p1096
aVroom or to
p1097
aVkeep gavilan college
p1098
aVdiscipline
p1099
aVlearning and
p1100
aV4711 notification at
p1101
aVaccess the board
p1102
aVand superintendent president
p1103
aVadministrative
p1104
aVan item which
p1105
aVmarch
p1106
aVbid
p1107
aVpresident closed session
p1108
aVsanta teresa
p1109
aVmotion there is
p1110
aVboard on non
p1111
aVgovernment code
p1112
aVfollows
p1113
aVmulticultural
p1114
aVthe board president
p1115
aVindividuals
p1116
aVsession 00 open
p1117
aVsteven kinsella
p1118
aVpolicies and
p1119
aVsenate
p1120
aVgavilan college cultivates
p1121
aVto otherwise
p1122
aVlitter
p1123
aVfor success in
p1124
aVthe time it
p1125
aVpolicy committee
p1126
aVso at
p1127
aVfinancial status report
p1128
aVto closed
p1129
aVhave an
p1130
aVbe
p1131
aVsubject area
p1132
aVscience room
p1133
aVof these items
p1134
aVdeemed to have
p1135
aVstem
p1136
aVsanta
p1137
aVby
p1138
aVcity council
p1139
aVfree campus and
p1140
aVpresented guidelines for
p1141
aVpayroll warrants
p1142
aVwill enable the
p1143
aVofficers reports
p1144
aVmeetings are
p1145
aVon by
p1146
aVstaff reports
p1147
aVthe agenda
p1148
aVsteven
p1149
aVboard will be
p1150
aVyou need
p1151
aVrecess to closed
p1152
aVagenda are considered
p1153
aVthe public to
p1154
aVof 20 minutes
p1155
aVsubmit
p1156
aVboard of
p1157
aVcertify the
p1158
aVarrangements to ensure
p1159
aVmeeting the
p1160
aVquarterly financial
p1161
aVallotted
p1162
aVitem on
p1163
aVboard on
p1164
aVunder the general
p1165
aVguidelines for comments
p1166
aVto subject
p1167
aVbe taken
p1168
aVsession of the
p1169
aVrelations organizations ccpro
p1170
aVitems be
p1171
aVbe routine
p1172
aVand mathematics engineering
p1173
aVaccessibility
p1174
aVengineering
p1175
aVequity 2015 16
p1176
aVccfs
p1177
aVtransfers drawn
p1178
aVlisted as
p1179
aVto the meeting
p1180
aVdo so
p1181
aVeach item
p1182
aVwill be
p1183
aVthe regularly scheduled
p1184
aVboard vote
p1185
aVdevelopmental
p1186
aVand technical education
p1187
aVto subject area
p1188
aVaccessibility to the
p1189
aVtwo new
p1190
aVsabbatical leave
p1191
aVrestoration
p1192
aVaccess the
p1193
aVand adopted
p1194
aVbackgrounds and abilities
p1195
aVfor comments from
p1196
aVpresident and chief
p1197
aVvice
p1198
aVmust submit
p1199
aVtaken in closed
p1200
aVto certify
p1201
aVgrowth in
p1202
aVcode
p1203
aVsuperintendent president closed
p1204
aVappear on the
p1205
aVedu
p1206
aVadjustment
p1207
aVeducation developmental
p1208
aVof any
p1209
aVthe americans
p1210
aVinformation staff
p1211
aVquarterly
p1212
aVagendas regular meetings
p1213
aVfifth street hollister
p1214
aVhelp keep gavilan
p1215
aVin full
p1216
aVof minutes
p1217
aVscience achievement
p1218
aVauthority and
p1219
aVlearning environments transfer
p1220
aVpersonnel actions
p1221
aVunderstood that
p1222
aVsabbatical leave report
p1223
aVon district funds
p1224
aVmaterial fees
p1225
aVweeks prior to
p1226
aVany gavilan college
p1227
aVemployee appointment executive
p1228
aVpledge
p1229
aVsetting thank
p1230
aVboard president and
p1231
aVspecifications of the
p1232
aVof all
p1233
aVhttp www gavilan
p1234
aVbeen considered in
p1235
aVthe regularly
p1236
aVthe public is
p1237
aVpublic employee
p1238
aVpractices
p1239
aVaccess
p1240
aVnotice is
p1241
aVitem appear on
p1242
aVcall vote
p1243
aVand mathematics
p1244
aVtaken on an
p1245
aVof the board
p1246
aVany action taken
p1247
aVtechnical
p1248
aV31
p1249
aVwarrants and electronic
p1250
aVat this
p1251
aVteresa blvd gilroy
p1252
aVof trustees as
p1253
aVclara
p1254
aVpreserve its
p1255
aVin compliance
p1256
aVsession pursuant
p1257
aVachievement program mesa
p1258
aVfrom
p1259
aVhereby given that
p1260
aVnext
p1261
aVof march 31
p1262
aVeducation and support
p1263
aVupdate on the
p1264
aVof representative
p1265
aViii
p1266
aVpublic comments individuals
p1267
aVtime for
p1268
aVthis
p1269
aVpublic relations organizations
p1270
aVtrustee rights and
p1271
aVclosing
p1272
aVthis is
p1273
aVand consolidation
p1274
aVis not
p1275
aVthat closed session
p1276
aVstem meadow
p1277
aV00 open session
p1278
aVblvd
p1279
aVissue request
p1280
aVvalley off
p1281
aVbuilding company project
p1282
aVof march
p1283
aVpowers authority for
p1284
aVtrustees as one
p1285
aVopen session 00
p1286
aVas one motion
p1287
aVincluding auxiliary aids
p1288
aVorganizations ccpro
p1289
aVand technical
p1290
aVrecess to
p1291
aVcultivates learning and
p1292
aVand board
p1293
aVon the agenda
p1294
aVand may do
p1295
aVrequests that
p1296
aVmeeting will enable
p1297
aVchief
p1298
aVgilroy ca 95020
p1299
aVagenda
p1300
aVthe board staff
p1301
aVof two
p1302
aVsocial science
p1303
aVthe next regularly
p1304
aVnew business
p1305
aVoff site
p1306
aVelection specifications
p1307
aVresolution no
p1308
aVmay do
p1309
aVresponsibilities
p1310
aVlabor
p1311
aVfree campus
p1312
aVof any action
p1313
aV2015
p1314
aVexecutive vice president
p1315
aVinstructional material fees
p1316
aV2016
p1317
aVmaterial
p1318
aVtraditional and
p1319
aVunless member
p1320
aVof student
p1321
aVcollege cultivates learning
p1322
aVto the
p1323
aVunderstood that the
p1324
aV14 2016
p1325
aVelection order and
p1326
aVappointment vice president
p1327
aVgeneral provisions
p1328
aVtrustees as
p1329
aVwill be permitted
p1330
aVmeasure
p1331
aVspecial
p1332
aVboard policies
p1333
aVdismissal
p1334
aVtransfer pathways
p1335
aVspecifications
p1336
aVemerging learning
p1337
aVlabor negotiators closed
p1338
aVedu 408 848
p1339
aVpayroll
p1340
aV95020
p1341
aVrequest for bids
p1342
aVgiven that
p1343
aVreport at march
p1344
aVto each speaker
p1345
aVarea
p1346
aVkeep
p1347
aVratification
p1348
aVto certify the
p1349
aV311q at march
p1350
aVadrian
p1351
aVtechnical education
p1352
aVhollister
p1353
aVare considered to
p1354
aVcollege student
p1355
aVminutes will be
p1356
aVand chief instruction
p1357
aVproperty protection resolution
p1358
aVin dynamic and
p1359
aVfull and
p1360
aVpolicy committee minutes
p1361
aVimprovements
p1362
aV408 848
p1363
aVstatus as
p1364
aVadopted
p1365
aVinformation staff reports
p1366
aVcode section
p1367
aVwishing to have
p1368
aVtuesday of each
p1369
aVwhich is
p1370
aVof each
p1371
aVroom or
p1372
aVsession pursuant to
p1373
aVwelcomed to
p1374
aVhowever no
p1375
aVor public requests
p1376
aVthese items
p1377
aVpublic is
p1378
aVpledge of allegiance
p1379
aVhollister california
p1380
aVin closed
p1381
aVauthority and 2015
p1382
aVneed
p1383
aVto board vote
p1384
aVagency
p1385
aVmid
p1386
aVin writing to
p1387
aVto have been
p1388
aVstudent equity
p1389
aVapril 12
p1390
aVwhich
p1391
aVdynamic and
p1392
aVleast 48 hours
p1393
aVit is presented
p1394
aVnancy
p1395
aVto order
p1396
aVagenda are
p1397
aV16 mid
p1398
aVcomments from
p1399
aVmotion there
p1400
aV4711
p1401
aVprior to
p1402
aVpresident will
p1403
aVaids or
p1404
aVrequest
p1405
aVat 408 848
p1406
aVdeemed to
p1407
aVboard meeting is
p1408
aV848 4711 notification
p1409
aVemerging
p1410
aVrecess
p1411
aVdba
p1412
aVstatus report
p1413
aVmake reasonable
p1414
aVdba cpa
p1415
aVportfolio
p1416
aVit is
p1417
aVstaff
p1418
aVacademic senate
p1419
aVprogram and
p1420
aVpolice officer
p1421
aVcarry over
p1422
aVbailey at
p1423
aVfrom the
p1424
aVmeeting room or
p1425
aVcareer and
p1426
aVemployee
p1427
aVregularly
p1428
aVservices closed session
p1429
aVbuilding company
p1430
aVreasonable arrangements to
p1431
aVjoint
p1432
aVallotted to each
p1433
aVtrustees meeting
p1434
aVareas
p1435
aVagenda must
p1436
aVspecific items
p1437
aVstudent equity 2015
p1438
aVis understood
p1439
aVto closed session
p1440
aVincluding
p1441
aVcollege board
p1442
aVpolice officer services
p1443
aVagenda the public
p1444
aVon an item
p1445
aVcollege cultivates
p1446
aVmodifications to trustee
p1447
aVpursuant to
p1448
aVclosed
p1449
aVroutine
p1450
aVcpa superintendent
p1451
aVsuccess in
p1452
aVtrustee rights
p1453
aVhowever
p1454
aVorganization gcfa
p1455
aVdisruptive conduct will
p1456
aVapproval
p1457
aVcareer
p1458
aVorganization csea
p1459
aVrequested by
p1460
aV31 2016
p1461
aVapril
p1462
aVand abilities
p1463
aVboard policy committee
p1464
aVotherwise
p1465
aVpublic comments
p1466
aVca
p1467
aVenvironments
p1468
aVedu 408
p1469
aVsupport services program
p1470
aVstreet hollister
p1471
aVthe time
p1472
aVhave an item
p1473
aVthe general provisions
p1474
aVagreements
p1475
aVthe district to
p1476
aVand consolidation request
p1477
aVand electronic transfers
p1478
aVboth
p1479
aVadministration recommends approval
p1480
aVof administrative services
p1481
aVan
p1482
aVof two new
p1483
aVdr steven kinsella
p1484
aVpolicies and administrative
p1485
aVto the regularly
p1486
aVwill
p1487
aVcollege public
p1488
aVgrowth in students
p1489
aVgcfa
p1490
aVboard of trustees
p1491
aVemployee appointment superintendent
p1492
aVarrangements
p1493
aVassignment amendment
p1494
aVpublic requests
p1495
aVboard on particular
p1496
aVadministration
p1497
aVcampus
p1498
aVmember
p1499
aVspeaker
p1500
aVservices please
p1501
aVbe included
p1502
aVadministrative services
p1503
aVhttp
p1504
aVmarch 31
p1505
aVjoint community
p1506
aVstudent
p1507
aVpark like setting
p1508
aVmay 10
p1509
aVoff
p1510
aVwarrants and
p1511
aVdistrict funds
p1512
aVclosed session of
p1513
aVlitter free campus
p1514
aVand support
p1515
aVaccept bid for
p1516
aVexecutive
p1517
aVresolution no 1004
p1518
aVresolution no 1005
p1519
aVresolution no 1006
p1520
aVor public
p1521
aV16 carry
p1522
aVat the time
p1523
aVneed special assistance
p1524
aVnot on
p1525
aVwill enable
p1526
aVin writing
p1527
aVitem which is
p1528
aVabilities through innovative
p1529
aVprovisions
p1530
aVgovernment
p1531
aVand property protection
p1532
aVwww gavilan edu
p1533
aVauxiliary aids
p1534
aVstatus report ccfs
p1535
aVlike
p1536
aVsuccess
p1537
aVconsent items each
p1538
aVhave
p1539
aVboard maximum of
p1540
aVofficer services
p1541
aVappear on
p1542
aVamendment
p1543
aVadministrative procedures
p1544
aVparticipate at
p1545
aVauthority
p1546
aVpresident and superintendent
p1547
aVand superintendent
p1548
aVgrowth
p1549
aVbailey at 408
p1550
aVbe deemed
p1551
aVrecognition
p1552
aV4800
p1553
aV1004 approving minor
p1554
aVin dynamic
p1555
aVhannon
p1556
aVare held the
p1557
aVbe permitted
p1558
aVits park like
p1559
aV311q at
p1560
aVof minutes will
p1561
aVrequest in writing
p1562
aVrecommends approval
p1563
aVconsidered in
p1564
aVbe deemed to
p1565
aVnotification at
p1566
aVconsidered to be
p1567
aVprofessional support staff
p1568
aVpathways
p1569
aVcultivates
p1570
aVwarrants
p1571
aVemployee organization csea
p1572
aVareas requested by
p1573
aVrestoration project
p1574
aVaction taken in
p1575
aVpersonal growth in
p1576
aVtransfer
p1577
aVagenda approved
p1578
aVscience room 206
p1579
aVpublic will be
p1580
aVaction taken
p1581
aVfunds
p1582
aVinstructional material
p1583
aVand are
p1584
aVis not on
p1585
aVteresa blvd
p1586
aVjune 14
p1587
aVminutes
p1588
aVhealth benefit
p1589
aVrelease closed
p1590
aVeducation
p1591
aVeric
p1592
aV48
p1593
aVsite improvements
p1594
aVthe general
p1595
aV375 fifth street
p1596
aVprepare students
p1597
aVroom 206
p1598
aVitem may do
p1599
aVaccessibility to
p1600
aVshall be deemed
p1601
aVwhat items will
p1602
aV12 2016 and
p1603
aVof trustees shall
p1604
aVjune
p1605
aVapproved by
p1606
aVstaff or
p1607
aVroutine and
p1608
aVelectronic transfers drawn
p1609
aVdrawn on
p1610
aVauxiliary
p1611
aVweeks prior
p1612
aVnext regularly
p1613
aVappointment of
p1614
aVleast 48
p1615
aVrepresentative
p1616
a.