(lp0
cdecimal
Decimal
p1
(S'16.728'
p2
tp3
Rp4
ag1
(S'15.972'
p5
tp6
Rp7
ag1
(S'15.390'
p8
tp9
Rp10
ag1
(S'14.694'
p11
tp12
Rp13
ag1
(S'13.257'
p14
tp15
Rp16
ag1
(S'11.907'
p17
tp18
Rp19
ag1
(S'11.826'
p20
tp21
Rp22
ag1
(S'10.701'
p23
tp24
Rp25
ag1
(S'6.708'
p26
tp27
Rp28
ag1
(S'6.623'
p29
tp30
Rp31
a.