(lp0
cdecimal
Decimal
p1
(S'40.560'
p2
tp3
Rp4
ag1
(S'58.560'
p5
tp6
Rp7
ag1
(S'76.560'
p8
tp9
Rp10
ag1
(S'77.280'
p11
tp12
Rp13
ag1
(S'79.560'
p14
tp15
Rp16
ag1
(S'79.616'
p17
tp18
Rp19
ag1
(S'85.920'
p20
tp21
Rp22
ag1
(S'94.560'
p23
tp24
Rp25
ag1
(S'97.560'
p26
tp27
Rp28
ag1
(S'104.649'
p29
tp30
Rp31
ag1
(S'156.759'
p32
tp33
Rp34
ag1
(S'195.300'
p35
tp36
Rp37
ag1
(S'222.946'
p38
tp39
Rp40
ag1
(S'243.755'
p41
tp42
Rp43
ag1
(S'253.855'
p44
tp45
Rp46
ag1
(S'277.969'
p47
tp48
Rp49
ag1
(S'308.310'
p50
tp51
Rp52
a.