(lp0
Vstudent board liaisons
p1
aVand will be
p2
aVexplaining board meeting
p3
aV06 conference
p4
aVapprove classified
p5
aVsubdivision of
p6
aVandre
p7
aVapproving use of
p8
aVnovember 23 2015
p9
aVof design build
p10
aV04 public
p11
aVimentor bay area
p12
aVthe california career
p13
aVboard policy
p14
aV24 report
p15
aVunger
p16
aVsecond reading of
p17
aVdisability
p18
aVparagraph of subdivision
p19
aV347
p20
aVdelivery for the
p21
aVbe considered
p22
aVunder
p23
aVpride
p24
aVspeak at
p25
aVmarcus battle
p26
aVthe item
p27
aVto address
p28
aVany subject
p29
aVboard will
p30
aVwritten reports
p31
aVupdates
p32
aVat approximately 10
p33
aVsafe school
p34
aVschool
p35
aVliaisons
p36
aVfacilities
p37
aVpresented february 2016
p38
aVtrustees will
p39
aVdelegate
p40
aVdamages of cabrales
p41
aVasserts that
p42
aVcharter
p43
aVpublic employee discipline
p44
aVforce
p45
aVdistrict architect and
p46
aVmodernization project marcus
p47
aVsubstitute classified
p48
aVapprove school field
p49
aVform which is
p50
aVprojects contract over
p51
aVfeatures not achievable
p52
aVsecond
p53
aVlimit your remarks
p54
aVbusiness services andre
p55
aVbrissey general purchasing
p56
aVbuild process marcus
p57
aVdiscussed and or
p58
aV72 hours prior
p59
aVfrank
p60
aVassociation csea
p61
aVthe record and
p62
aVwith disabilities
p63
aVfor 2016 17
p64
aVname is
p65
aVor the superintendent
p66
aVratify approve classified
p67
aVcitizens can address
p68
aVhills high
p69
aVboard to be
p70
aV14 human
p71
aVpublic record no
p72
aV24 report closed
p73
aVitems
p74
aVemployees
p75
aVreport of
p76
aVreports
p77
aVand 54954 preclude
p78
aVcredit
p79
aVwill begin
p80
aVapprove distribution
p81
aVof east side
p82
aVjulio
p83
aVaids or services
p84
aVmotion there will
p85
aV23 board of
p86
aVcounty
p87
aVfor it scholarship
p88
aVachievable
p89
aVpolicy 3100 budget
p90
aVfrank biehl vice
p91
aVauthorization to
p92
aV54956
p93
aV54957
p94
aV54954
p95
aVto approve the
p96
aVno response
p97
aVeast side
p98
aVcall
p99
aVcarried out
p100
aV15 04 discussion
p101
aVcare
p102
aVthat are received
p103
aVdiscussion of these
p104
aVbiehl board
p105
aVroom open
p106
aVfor damages
p107
aVof design
p108
aVreport of governor
p109
aVall other public
p110
aV07 conference
p111
aVadjourn
p112
aVhold
p113
aVmust
p114
aVnotification 72 hours
p115
aVroom
p116
aVplaced on the
p117
aVsubject not on
p118
aVthe positive
p119
aVmt
p120
aVboard regarding
p121
aVto ratify
p122
aVsuperintendents conference room
p123
aVservices and
p124
aVto enter into
p125
aVindicated
p126
aVthe superintendents conference
p127
aVcan be
p128
aVaction to adopt
p129
aVrichard nguyen asb
p130
aVend
p131
aVteachers aft
p132
aVprovide
p133
aV01 discussion and
p134
aVemployee performance evaluation
p135
aVhow
p136
aVaction calendar are
p137
aVfor statement
p138
aVfarshid samsami bond
p139
aVprovide features
p140
aVdistrict shall
p141
aVaction to approve
p142
aVlan
p143
aVfor persons with
p144
aVadopt salary schedule
p145
aV2016 12 approving
p146
aVindicated on the
p147
aVdistrict cari
p148
aVpresident
p149
aVand facilities andre
p150
aVlaw
p151
aVstaff and no
p152
aVagenda for
p153
aVthe agenda must
p154
aVherrera clerk
p155
aVda silva
p156
aVclaim for damages
p157
aVcollaborative of
p158
aVstatement dated october
p159
aVare considered
p160
aVenter
p161
aVorder
p162
aVfor pegasus high
p163
aVand capital accounting
p164
aVreduce project costs
p165
aVtask force
p166
aVoffice
p167
aVzee
p168
aVconsent
p169
aVover
p170
aVto purchase
p171
aVfor successor contract
p172
aVto be discussed
p173
aVprojects contract
p174
aV54954 preclude any
p175
aV54954 and 54954
p176
aVcalifornia career pathways
p177
aVsuperintendent to agendize
p178
aVof proposed draft
p179
aVorder indicated on
p180
aV408
p181
aVthen
p182
aVpublic may
p183
aVannouncement and
p184
aVan unagendized item
p185
aVon the
p186
aVdiscussion regarding family
p187
aVsafe
p188
aVroutine and will
p189
aV16 board of
p190
aV15 01 adopt
p191
aVschools
p192
aVfor alternative
p193
aVcard purchases
p194
aVfacilities julio
p195
aVsuperintendents
p196
aVresources consent
p197
aVto litigation pursuant
p198
aVreasonable
p199
aVeach
p200
aVclosed session in
p201
aVside
p202
aVbond
p203
aVbusiness services and
p204
aVfrank biehl
p205
aVarchitect and farshid
p206
aVwith the
p207
aVaide
p208
aVfor consideration
p209
aVwill be no
p210
aVorder to participate
p211
aVboards association
p212
aVaids
p213
aVjose ca
p214
aVachievable through
p215
aVsee item
p216
aVon tonights agenda
p217
aVof go
p218
aVfor damages of
p219
aVside union
p220
aVmt pleasant high
p221
aVmember lawful expenses
p222
aVindicated on
p223
aVof silicon valley
p224
aVindependence
p225
aVfoundation
p226
aVassociate
p227
aVthe post
p228
aVmanagement
p229
aVcontact the
p230
aVasserts that the
p231
aVno discussion of
p232
aVemployees association csea
p233
aVcode section 54957
p234
aVagenda closed session
p235
aVcode section 54954
p236
aVof educational
p237
aVbond capital projects
p238
aVimentor program nate
p239
aVapprovals and
p240
aVfoundation of
p241
aVsilicon
p242
aVimani village
p243
aVfill out
p244
aVpublic employment public
p245
aVlegal counsel anticipated
p246
aVfeatures
p247
aVplaced on
p248
aVdelegate assembly election
p249
aVboard action
p250
aV13 business services
p251
aVhearing
p252
aVwill
p253
aV02 presentation and
p254
aVmeeting of the
p255
aVand acted
p256
aVor below
p257
aVto subdivision
p258
aVprogram wil cason
p259
aVand regular board
p260
aVvander zee assistant
p261
aVsuperintendent may
p262
aVand explanation
p263
aVapproximately
p264
aVlisted
p265
aVexplanation to
p266
aVcenter board
p267
aVof contract for
p268
aVdistribution of go
p269
aVcenter board room
p270
aVapprove minutes
p271
aVthe initial
p272
aVlucas district architect
p273
aVthe contract for
p274
aV12 02
p275
aV12 03
p276
aVthe board considers
p277
aV12 01
p278
aVitems be considered
p279
aVcontract from san
p280
aVno items on
p281
aVresources operational
p282
aVand francine
p283
aVproject
p284
aVsubstitute classified management
p285
aVfacilities andre
p286
aVdistrict to
p287
aVamericans with disabilities
p288
aV957 aft
p289
aVcalendar under
p290
aVesta
p291
aVplease contact
p292
aVthe education center
p293
aVmaintenance and
p294
aVproperty chris
p295
aVaction can be
p296
aVsanta clara county
p297
aVadjourn to closed
p298
aVprocedures and
p299
aVapproximately 10
p300
aVhills high school
p301
aVthat
p302
aVregarding the
p303
aVcio to
p304
aVsuperintendent at
p305
aVis called
p306
aV39 charter school
p307
aV10 public members
p308
aV24 01 legal
p309
aVshall
p310
aVcomment regarding
p311
aVregular
p312
aVsignificant exposure to
p313
aVletter
p314
aVresponse is
p315
aVor any
p316
aVincluding auxiliary
p317
aVaction regarding independence
p318
aVand accessibility to
p319
aVto participate
p320
aVto litigation
p321
aVto make
p322
aVaccounting and francine
p323
aVwill report
p324
aVdirector imentor
p325
aVcredit card purchases
p326
aVcapital accounting and
p327
aVif you
p328
aVat 408 347
p329
aVpathways trust
p330
aVmeetings
p331
aVand all
p332
aVhigh school growth
p333
aVpurchasing project
p334
aVtonights agenda however
p335
aVparticipate
p336
aVunless members of
p337
aVis required
p338
aVapprove minutes of
p339
aVwith labor negotiators
p340
aVjanice unger capital
p341
aVdiscussion of
p342
aVboard discussion and
p343
aVto adopt substitute
p344
aVconference room open
p345
aVmusic art
p346
aVto agendize
p347
aV02 ratify
p348
aVand 54954
p349
aVaction have
p350
aV10
p351
aVlisted under the
p352
aVandre bell director
p353
aVda
p354
aVpledge of
p355
aVaction at future
p356
aV16 01 ratify
p357
aVreport
p358
aVbrown act government
p359
aVthe education
p360
aVboard special
p361
aVin appropriate alternative
p362
aVaccordance
p363
aVbay
p364
aVemployee discipline dismissal
p365
aVof bond capital
p366
aVservices student services
p367
aVexposure to
p368
aVrelease
p369
aVin compliance with
p370
aVcollege success center
p371
aV02 piedmont hills
p372
aV01 president
p373
aVcupccaa informal bond
p374
aVservices student
p375
aVby the board
p376
aVenter into
p377
aVmeeting procedures
p378
aVcalendar under this
p379
aVreasonable arrangements
p380
aVsilva director of
p381
aVbest
p382
aVemployees association
p383
aV02
p384
aV03
p385
aV04 accept report
p386
aV01
p387
aV06
p388
aV07
p389
aV04
p390
aV05
p391
aVsection 21 are
p392
aVand allocate funds
p393
aVproject costs expedite
p394
aV01 president adjourns
p395
aVschedule cari vaeth
p396
aVpledge of allegiance
p397
aVtrustees will begin
p398
aVapproximately 00
p399
aVon out
p400
aVherrera
p401
aVof records
p402
aVhowever
p403
aVof construction maintenance
p404
aVreport closed
p405
aVclosed session action
p406
aVapproximately 05
p407
aVreceived
p408
aVassembly election frank
p409
aVcarried out to
p410
aVof credit
p411
aVaction as an
p412
aVlegal counsel
p413
aVdecember 10 2015
p414
aVvander
p415
aVconsiders the motion
p416
aVgovernment code section
p417
aVon tonights
p418
aVron gonzales
p419
aVcontact the office
p420
aVbusiness operational
p421
aVthe superintendent may
p422
aVkaren
p423
aVboard or the
p424
aVtrust
p425
aVspeak
p426
aVconference
p427
aVsuperintendent of human
p428
aVunion
p429
aVthree
p430
aVbeen
p431
aVsubstitute certificated administrative
p432
aVconsent action
p433
aVunrepresented employees
p434
aVconference with labor
p435
aVother public records
p436
aV05 conference
p437
aVsunshine the initial
p438
aVand or
p439
aVsunshine
p440
aVdirector of finance
p441
aVmeeting agenda
p442
aVbattle associate superintendent
p443
aVor discussion
p444
aVbusiness operational items
p445
aVreport on
p446
aVcomment regarding items
p447
aVname for
p448
aVpublic meeting of
p449
aVand facilities julio
p450
aV20 01
p451
aVapprove and
p452
aVto audience
p453
aV10 public
p454
aVof education
p455
aVmay request an
p456
aVwith the law
p457
aVnear
p458
aVteachers
p459
aVcapital projects purchasing
p460
aVproperty
p461
aVcertificated personnel
p462
aV01 the
p463
aVof records approvals
p464
aVaccept report
p465
aVbe placed on
p466
aVis
p467
aVit
p468
aVexpenses
p469
aVproposed adoption of
p470
aVcapital projects
p471
aVin
p472
aV21 are
p473
aVsession will begin
p474
aVif
p475
aVsession at
p476
aVconsidered by
p477
aVcareer pathways
p478
aVmake
p479
aVfarshid samsami
p480
aVcan be taken
p481
aVat future
p482
aVfunk
p483
aVdamages
p484
aVand mitigations
p485
aVprior to the
p486
aVsuperintendent communications
p487
aVof finance
p488
aVassociate superintendent
p489
aVrecord no
p490
aVservices and linda
p491
aVof the district
p492
aVper schedule
p493
aVis located at
p494
aV2015 16
p495
aVadopt substitute certificated
p496
aVand allocate
p497
aVagenda as per
p498
aVlucas
p499
aVagenda must fill
p500
aVregarding independence high
p501
aVproject will
p502
aVhispanic
p503
aVcontact
p504
aVof the public
p505
aV01 for consideration
p506
aVratify approve certificated
p507
aVon any
p508
aVmember or
p509
aVcapitol
p510
aVproposed
p511
aVform which
p512
aVsubstitute certificated
p513
aVhispanic foundation of
p514
aVcareer pathways trust
p515
aVsuperintendent to
p516
aVhuman
p517
aVreceive summary report
p518
aV16 02
p519
aVjose
p520
aV16 01
p521
aVtransactions personnel actions
p522
aVhills
p523
aV2015 2016 12
p524
aVreceive from santa
p525
aVbusiness services operational
p526
aVrecords approvals and
p527
aVof go for
p528
aVboard
p529
aVtrustees superintendent communications
p530
aVitems to be
p531
aVeast
p532
aV04 discussion and
p533
aVis required from
p534
aVrequest an item
p535
aVtaken by
p536
aVvanessa
p537
aV72 hours
p538
aVthat the following
p539
aVprogram marcus
p540
aVto this meeting
p541
aVspecific
p542
aVpurchase
p543
aVat or
p544
aVis taken by
p545
aVopen session will
p546
aVvice president
p547
aVboard member
p548
aVenacted in
p549
aV00 education center
p550
aV50
p551
aV01 ratification
p552
aVelection
p553
aVpiedmont hills high
p554
aVapprove certificated
p555
aVhigh school and
p556
aVtransactions personnel
p557
aVfor
p558
aVnotification
p559
aVcharter school facilities
p560
aV02 presentation
p561
aVcomments
p562
aVtrustees
p563
aVallocate
p564
aV25 000
p565
aV50 000
p566
aV2015 regular
p567
aVin order to
p568
aVlisted under
p569
aVpost
p570
aVbuild delivery for
p571
aVcitizens
p572
aVhigh school
p573
aVensure
p574
aVunion high
p575
aVor any subject
p576
aVtonights
p577
aV2015 regular board
p578
aV15 facilities
p579
aVpresident ceo hispanic
p580
aVfacility
p581
aVsalary schedule cari
p582
aV21 written
p583
aV16 03
p584
aVand no
p585
aVto participate in
p586
aVto board
p587
aVinitial
p588
aVin one motion
p589
aVof his knowledge
p590
aVmusic
p591
aVmay instruct the
p592
aVwill reduce project
p593
aVdiscussion regarding
p594
aVstudent services
p595
aVform
p596
aVservices linda
p597
aV07 conference with
p598
aVratification of bond
p599
aVentrance to
p600
aVtaken
p601
aVaction to ratify
p602
aVreduce project
p603
aVthe design bid
p604
aVremoved
p605
aVliaisons minutes
p606
aVpersonnel actions presented
p607
aVpleasant high
p608
aVcounsel
p609
aVschool ron
p610
aVservices andre
p611
aVdiscussion regarding imentor
p612
aVstudent services consent
p613
aVauthorization
p614
aVact if
p615
aVregarding authorization to
p616
aVthe public record
p617
aVor below 25
p618
aVrequest
p619
aVmitigations marcus
p620
aVcapital accounting
p621
aVto ensure
p622
aVaccounting
p623
aVto the san
p624
aVfor 2016
p625
aVnegotiations
p626
aVno
p627
aVof education the
p628
aVwhen
p629
aVland agreement
p630
aVnegotiators
p631
aVtim
p632
aVdesign bid
p633
aVor removed from
p634
aVunder the consent
p635
aVout of
p636
aVto approve
p637
aV04 accept
p638
aVcio cari vaeth
p639
aVstudent aide personnel
p640
aVcontract over
p641
aVsan jose
p642
aVunagendized item no
p643
aVimentor bay
p644
aV11 01
p645
aVcounsel existing litigation
p646
aVproposition 39
p647
aVadopt second
p648
aVthis section
p649
aV03 recess to
p650
aVbond program
p651
aVfederation of
p652
aV14 01 discussion
p653
aVtime
p654
aVof trustees
p655
aV20 facilities consent
p656
aVboard will then
p657
aVand public
p658
aVwritten information is
p659
aVor discussion regarding
p660
aVmanager
p661
aVreceive summary
p662
aVrequest form
p663
aVbattle
p664
aVmeeting procedures and
p665
aVare received
p666
aVschedule for substitute
p667
aVwill then
p668
aVrecommendations requiring
p669
aVaction regarding the
p670
aV02 announcement
p671
aVbrown
p672
aV12 educational
p673
aVfederation
p674
aVthe board to
p675
aVthat design build
p676
aVfrom the board
p677
aVof subdivision of
p678
aVregarding members
p679
aVmay request that
p680
aVaccommodation and
p681
aV02 announcement and
p682
aVremarks to
p683
aVitem
p684
aVof silicon
p685
aVor action at
p686
aVupon request
p687
aVthe
p688
aVand facilities
p689
aV13 03 discussion
p690
aVwill report on
p691
aVto determine
p692
aVin the board
p693
aVunrepresented
p694
aVsuperintendent at 408
p695
aVsubstitute
p696
aVassistance
p697
aVcalifornia school boards
p698
aVprofessional services
p699
aVunder this
p700
aVthen adjourn to
p701
aVrequired from
p702
aVcalifornia school employees
p703
aVboard or district
p704
aVeducational services
p705
aVclerk
p706
aV03 presentation and
p707
aVsamsami bond program
p708
aVopen session
p709
aV01 board of
p710
aVwelcome and
p711
aVbe no
p712
aVperformance evaluation
p713
aVaddress
p714
aVrequest form which
p715
aVbe discussed
p716
aVmeeting will
p717
aVexpulsion
p718
aVservices over
p719
aVschedule for
p720
aVpublic records
p721
aVamendment to
p722
aVto ratify cupccaa
p723
aVsanta
p724
aVthe board will
p725
aVaction is
p726
aVhis knowledge in
p727
aVbuild process
p728
aVsamsami
p729
aV16 first
p730
aVassociated with
p731
aVschool music art
p732
aV05 presentation discussion
p733
aVpositive
p734
aVsection 21
p735
aValternative formats for
p736
aVeducation unity
p737
aVratify approve board
p738
aVrequiring board
p739
aVentrance
p740
aVand regular
p741
aVorganizational and
p742
aVcenter property
p743
aVof closed session
p744
aVthe district
p745
aVapproving
p746
aVnguyen
p747
aVminutes of
p748
aVof purchasing and
p749
aVregarding family
p750
aVat this time
p751
aVcases
p752
aVtrustees superintendent
p753
aVorganizations
p754
aVdistrict staff
p755
aVaccessibility to this
p756
aVapproving use
p757
aVadministrator collaborative of
p758
aVafl cio
p759
aV15 02 discussion
p760
aV01 ratify approve
p761
aVvega
p762
aVcan
p763
aVon out of
p764
aVfollowing
p765
aVall other
p766
aV02 approve minutes
p767
aVfebruary 2016
p768
aVclaim
p769
aVservices karen poon
p770
aVteachers local 957
p771
aVcontract for professional
p772
aVboard member lawful
p773
aVon the meeting
p774
aVwritten information
p775
aVplease contact the
p776
aVthis agenda
p777
aVor the
p778
aVclassified personnel
p779
aVon closed session
p780
aV02 ratify approve
p781
aVbuild delivery
p782
aVauxiliary aids or
p783
aVdiscussion
p784
aVcupccaa informal general
p785
aVconstruction maintenance
p786
aVof closed
p787
aVbond program manager
p788
aVother public
p789
aVron gonzales president
p790
aVstate your name
p791
aVto the
p792
aVapprove the bond
p793
aVitems prior
p794
aVadopt resolution 2015
p795
aVcontract from east
p796
aVmay
p797
aVdamages of
p798
aVcan address the
p799
aVsalary schedule
p800
aVrequest specific
p801
aVupgrades for pegasus
p802
aVand or discussion
p803
aVas an
p804
aVprofessional services at
p805
aVthat the
p806
aVallocate funds
p807
aVwill begin at
p808
aV01 ratify
p809
aVapprove certificated personnel
p810
aVcounty office
p811
aV14 02 discussion
p812
aVoctober 22
p813
aVcalled please come
p814
aVcio to east
p815
aVin the superintendents
p816
aVshall also
p817
aVon calendar under
p818
aVread persons
p819
aVadjourns the
p820
aVwishing
p821
aVclara county
p822
aVschool and the
p823
aVprojects purchasing manager
p824
aVboard vice president
p825
aVcabrales and
p826
aVis located near
p827
aVmanagers
p828
aVhow citizens can
p829
aVreport of credit
p830
aVconstruction maintenance and
p831
aVand sunshine
p832
aVregular meeting of
p833
aV03 ratify approve
p834
aVof section 54956
p835
aVare received into
p836
aVpolicy
p837
aVproposition 39 charter
p838
aVfinance
p839
aVregular board
p840
aVaction to receive
p841
aVregarding
p842
aVout gold
p843
aVunion high school
p844
aVrecords
p845
aVnot
p846
aVlocated near the
p847
aVexpedite
p848
aVenacted
p849
aVname
p850
aVto east side
p851
aVwith labor
p852
aVjames
p853
aVwish to address
p854
aVto purchase orders
p855
aVyour remarks to
p856
aVadministrator collaborative
p857
aVbegin at 00
p858
aVgovernor budget updates
p859
aVdetermine that design
p860
aVitem on the
p861
aVno response is
p862
aVbe discussed and
p863
aVuse of
p864
aVaft afl cio
p865
aVboard member may
p866
aVsuperintendent operational
p867
aV830 capitol avenue
p868
aVbe no discussion
p869
aVor accommodations
p870
aV15 03
p871
aV15 02
p872
aV15 01
p873
aV16 20
p874
aVhearing operational items
p875
aV17 01 ratify
p876
aVspeak at this
p877
aV957 aft afl
p878
aV01 expulsion none
p879
aVreceive and
p880
aVside teachers association
p881
aVteachers association esta
p882
aVstate
p883
aVhearing at approximately
p884
aVcari
p885
aVcalifornia
p886
aVof cabrales
p887
aVeducation center anyone
p888
aVaccommodation
p889
aVcard
p890
aVthe california
p891
aVpurchasing and capital
p892
aVproposed adoption
p893
aV03 approve
p894
aVwish to
p895
aVmotion
p896
aVtime the
p897
aVfrancine brissey general
p898
aVschool district
p899
aVfirst
p900
aVtrustees please
p901
aVwishing to address
p902
aVthe projects
p903
aVapprove distribution of
p904
aVbond project
p905
aVone
p906
aVremoved from
p907
aVamericans
p908
aVhave been
p909
aVopen
p910
aVhours prior
p911
aVsession items
p912
aVwill be enacted
p913
aVto receive
p914
aVaddress the board
p915
aVdistrict
p916
aVdistrict to the
p917
aVrequest the
p918
aVanyone
p919
aVdraft
p920
aVpersonnel actions maintenance
p921
aV347 5010
p922
aVservices and andre
p923
aVrecord and
p924
aVpresentation and
p925
aV20 facilities
p926
aVthe end
p927
aVbusiness services
p928
aVto make reasonable
p929
aVand or board
p930
aVmember may
p931
aVagendize the
p932
aVactions presented february
p933
aVinformal general
p934
aVquad
p935
aVthe superintendents
p936
aVamericans with
p937
aV11
p938
aVdiscussion regarding imani
p939
aV13
p940
aV12
p941
aV15
p942
aV14
p943
aV17
p944
aV16
p945
aV19
p946
aV18
p947
aVthe item for
p948
aVfuture
p949
aVcollege
p950
aV16 02 approve
p951
aVroom when your
p952
aVrichard nguyen
p953
aVand
p954
aVunless members
p955
aVdiscipline dismissal release
p956
aVlick
p957
aVsan
p958
aVschool employees
p959
aVemployee discipline
p960
aVceo hispanic
p961
aVspecific items to
p962
aV13 02 discussion
p963
aVproposal for successor
p964
aVitems under section
p965
aVany
p966
aVexpenses mileage
p967
aVamendment to board
p968
aVratify approve
p969
aVitems listed under
p970
aV01 ratification of
p971
aVoperational items board
p972
aVthe regular
p973
aVpotential
p974
aVca 95133
p975
aVinformal bond
p976
aVinformal general purchasing
p977
aV12 03 discussion
p978
aVperformance
p979
aVthe end of
p980
aVbegin
p981
aVagreement at education
p982
aVannual organizational
p983
aVthe board may
p984
aVaction can
p985
aVremarks
p986
aVaccounting and
p987
aVthen adjourn
p988
aVto the podium
p989
aVconsidered
p990
aVadopt
p991
aVthe agenda for
p992
aVyour remarks
p993
aVcapitol avenue
p994
aVorders to
p995
aVprofessional
p996
aVsenior
p997
aVgo for it
p998
aVcompliance with
p999
aVuse of design
p1000
aVcertification
p1001
aVworkshops
p1002
aVpursuant
p1003
aVof career
p1004
aVof purchasing
p1005
aVfuture meeting
p1006
aVmanuel herrera
p1007
aVthe board board
p1008
aV14 03
p1009
aVlan nguyen president
p1010
aVwho wish
p1011
aVoverfelt
p1012
aVbattle associate
p1013
aVconference room
p1014
aVmodifications or accommodations
p1015
aVconfidential employees
p1016
aVclosed
p1017
aVassistant
p1018
aVdesignated
p1019
aVpresentation and or
p1020
aVof november 19
p1021
aVunder the
p1022
aVbuilding and
p1023
aV830 capitol
p1024
aVanyone wishing
p1025
aV23 02
p1026
aVgrant glenn vander
p1027
aV23 01
p1028
aVmodernization project will
p1029
aVsummary
p1030
aVbe read
p1031
aVexpedite the
p1032
aVunagendized item
p1033
aVboard vice
p1034
aV03 discussion and
p1035
aVspecial order
p1036
aVand mitigations marcus
p1037
aVand all other
p1038
aVfunds for
p1039
aV19 2015
p1040
aVregarding 2016
p1041
aVzee assistant superintendent
p1042
aVaction item
p1043
aVgold request
p1044
aVcalendar
p1045
aVcalifornia career
p1046
aVassembly election
p1047
aV830
p1048
aVnear the entrance
p1049
aVpotential cases
p1050
aVboard board
p1051
aVrepresentatives
p1052
aVdiscussed in closed
p1053
aVthis agenda and
p1054
aVmake reasonable arrangements
p1055
aVpersons wishing to
p1056
aVreading
p1057
aVof business operational
p1058
aVparticipate in
p1059
aVthe district shall
p1060
aV5010 notification 72
p1061
aVapprovals
p1062
aVthat items be
p1063
aVhuman resources consent
p1064
aVtime the board
p1065
aVroom open session
p1066
aVis located
p1067
aVcome
p1068
aVcalifornia school
p1069
aVinformation is
p1070
aVavailable this
p1071
aVadjourn to
p1072
aVand francine brissey
p1073
aV25 01 president
p1074
aVavailable this agenda
p1075
aVand or action
p1076
aVread written information
p1077
aVdated
p1078
aVcredit card
p1079
aVthe proposed
p1080
aVfor it
p1081
aVsafe school ambassadors
p1082
aVboard on any
p1083
aVassociated with this
p1084
aVreceive and sunshine
p1085
aV21 02 receive
p1086
aVstart times
p1087
aV02 chris funk
p1088
aV01 for
p1089
aVof credit card
p1090
aVlan nguyen
p1091
aV02 discussion and
p1092
aVconsiders
p1093
aVdiscussion and or
p1094
aVentrance to the
p1095
aVinstruct the superintendent
p1096
aVnguyen director
p1097
aVthe podium state
p1098
aVsubdivision of government
p1099
aVtimes task
p1100
aVthe contract
p1101
aVcounty office of
p1102
aVapproximately 10 to
p1103
aVenable
p1104
aVadjourns the meeting
p1105
aVcari vaeth
p1106
aVfrom san
p1107
aVbrissey general
p1108
aVpursuant to subdivision
p1109
aVitems may
p1110
aVauthorization to enter
p1111
aVpublic members
p1112
aVpattie
p1113
aVfield trips
p1114
aVcase
p1115
aVproposed draft
p1116
aVthese
p1117
aVand recommendations requiring
p1118
aVvillage program wil
p1119
aVif you need
p1120
aV25 000 marcus
p1121
aVliaisons minutes each
p1122
aVthe meeting agenda
p1123
aVindependence high school
p1124
aVoperational items
p1125
aVtonights agenda
p1126
aV000 marcus battle
p1127
aVdesign bid build
p1128
aVmember may request
p1129
aVfirst interim report
p1130
aVcontract
p1131
aVimentor program
p1132
aVto enter
p1133
aVto three minutes
p1134
aVvanessa cabuag
p1135
aVpay
p1136
aVupgrades for
p1137
aVapprove board
p1138
aVsummary report
p1139
aVrelated modifications or
p1140
aVside union high
p1141
aVto east
p1142
aVbegin at
p1143
aVgonzales president ceo
p1144
aVspecial assistance disability
p1145
aVdirector
p1146
aVpersons
p1147
aVin accordance
p1148
aVlocated at the
p1149
aVhigh school music
p1150
aVor action regarding
p1151
aVapproximately 00 education
p1152
aVconference with legal
p1153
aVdirector of
p1154
aVapprove purchase
p1155
aVdirector of construction
p1156
aVcosts
p1157
aVthe post senior
p1158
aVreports recommendation
p1159
aVdated october
p1160
aVadministration building and
p1161
aVyour name is
p1162
aVcharter school
p1163
aVby the
p1164
aVboard discussion
p1165
aVthe public meeting
p1166
aVactions
p1167
aV11 01 discussion
p1168
aVact if you
p1169
aVto receive and
p1170
aVunger capital
p1171
aVor action to
p1172
aVsuccessor contract
p1173
aVboard audit committee
p1174
aVannouncement
p1175
aVof the
p1176
aVand linda
p1177
aVtaken by the
p1178
aVagendize the item
p1179
aVregarding closed
p1180
aVbelow 25 000
p1181
aVthe public may
p1182
aVbell director
p1183
aVit scholarship
p1184
aV10 2015
p1185
aVcan address
p1186
aVread
p1187
aVadministrative rate of
p1188
aVacted on out
p1189
aV01 expulsion
p1190
aVin the
p1191
aVfirst interim
p1192
aVroom when
p1193
aVart and
p1194
aVapprove classified personnel
p1195
aVthe board room
p1196
aVallocate funds for
p1197
aV04 public employee
p1198
aVremarks to three
p1199
aVroll
p1200
aVand farshid
p1201
aVaudience
p1202
aVprocedures and how
p1203
aV5010
p1204
aVclassified
p1205
aVsuperintendent
p1206
aV19 03
p1207
aV19 02
p1208
aV19 01
p1209
aVout to
p1210
aVproject costs
p1211
aVsuccessor contract from
p1212
aVbrissey
p1213
aVunder section
p1214
aVnot on tonights
p1215
aVand administration
p1216
aVof teachers local
p1217
aVboard board member
p1218
aVlegal
p1219
aVan unagendized
p1220
aVimentor
p1221
aVare written reports
p1222
aVinitial proposal
p1223
aVwelcome
p1224
aVassembly
p1225
aVemployee performance
p1226
aVbusiness
p1227
aV2015 annual
p1228
aVdiscussed and
p1229
aVfalkner
p1230
aVwil cason director
p1231
aVof november
p1232
aVapprove change orders
p1233
aVbelow 50
p1234
aVmeeting agenda information
p1235
aVon
p1236
aVsuperintendent consent
p1237
aVbe read persons
p1238
aV10 to
p1239
aVthe agenda as
p1240
aVof
p1241
aVdisabilities
p1242
aVgeneral purchasing manager
p1243
aVdiscussed
p1244
aVitems to
p1245
aVact
p1246
aVschool boards association
p1247
aVschool ambassadors
p1248
aVpost senior
p1249
aVboard audit
p1250
aVratify approve school
p1251
aVstudent board
p1252
aVschools start
p1253
aVproperty chris funk
p1254
aVmarcus battle associate
p1255
aV22 2015
p1256
aVfor statement dated
p1257
aVthe americans with
p1258
aVof the schools
p1259
aV00 in the
p1260
aVdetermine
p1261
aVfacility upgrades for
p1262
aVyour
p1263
aVboard considers the
p1264
aVregarding imentor
p1265
aV03 presentation
p1266
aVarea
p1267
aVthere
p1268
aVname for the
p1269
aVlegal counsel existing
p1270
aVneed special
p1271
aVcitizens can
p1272
aVfarshid
p1273
aVvalley
p1274
aVoverfelt high
p1275
aV01 the superintendent
p1276
aVone motion
p1277
aVany item on
p1278
aVdistrict cari vaeth
p1279
aVagenda persons wishing
p1280
aVwith
p1281
aVconference with
p1282
aVoctober
p1283
aVto board policy
p1284
aVcounsel existing
p1285
aVmanuel
p1286
aV408 347
p1287
aVceo hispanic foundation
p1288
aVtrips
p1289
aVoffice of
p1290
aVthe motion unless
p1291
aVprofessional services over
p1292
aV5010 notification
p1293
aVthe board
p1294
aVprovisions of
p1295
aVan
p1296
aVapprove purchase orders
p1297
aV03 discussion
p1298
aVexpedite the projects
p1299
aVmitigations
p1300
aVat
p1301
aVto be placed
p1302
aVaces
p1303
aVanyone wishing to
p1304
aVmodifications or
p1305
aVsession action
p1306
aVmember or the
p1307
aVfill
p1308
aVpost senior program
p1309
aVafl cio cari
p1310
aVpersonnel
p1311
aVon agenda closed
p1312
aV3100
p1313
aVfield
p1314
aVeducation the
p1315
aVyou
p1316
aVthe superintendent
p1317
aVaddress the
p1318
aVcollaborative
p1319
aVwhen your name
p1320
aVboard liaisons minutes
p1321
aVcabrales
p1322
aV00 in
p1323
aVpodium
p1324
aVapprove change
p1325
aVapprove board member
p1326
aVchris
p1327
aVfrank biehl board
p1328
aVpoon
p1329
aVdistrict architect
p1330
aVbuilding
p1331
aVsubdivision
p1332
aVthe schools start
p1333
aVnovember 23
p1334
aVassistance disability
p1335
aVsession items or
p1336
aVresolution
p1337
aV04 discussion
p1338
aVat education
p1339
aVall
p1340
aVreport closed session
p1341
aV2015 and
p1342
aVclosed session
p1343
aVemployee appointment
p1344
aVand sunshine the
p1345
aVbiehl vice president
p1346
aV18 01 ratification
p1347
aVof business services
p1348
aVagenda persons
p1349
aV03 public
p1350
aVon closed
p1351
aVto
p1352
aVmodernization
p1353
aVprogram
p1354
aVrequiring board action
p1355
aVpodium state your
p1356
aVpresentation
p1357
aVmay address the
p1358
aVpresident adjourns the
p1359
aVappointment
p1360
aVconfidential
p1361
aVdisabilities act if
p1362
aVlianna
p1363
aVproject will reduce
p1364
aVas per schedule
p1365
aVthe motion
p1366
aVadoption of
p1367
aVpersons with disability
p1368
aVhours prior to
p1369
aVbest of his
p1370
aVknowledge in accordance
p1371
aVthe schools
p1372
aVsenior program
p1373
aVdetermine that
p1374
aVsections 16
p1375
aVdismissal release
p1376
aVhowever the board
p1377
aVcertificated administrative rate
p1378
aVboard action have
p1379
aVlocated at
p1380
aVtrustees please contact
p1381
aV190
p1382
aVsession in the
p1383
aVhold public
p1384
aVapprove student aide
p1385
aVrate
p1386
aVdesign
p1387
aVthat are
p1388
aVprogram nate falkner
p1389
aVconsiders the
p1390
aVfoundation of silicon
p1391
aV18 business services
p1392
aVrichard
p1393
aV3100 budget
p1394
aV03 ratify
p1395
aVsection
p1396
aVresume
p1397
aVthe san
p1398
aVcertificated
p1399
aVaction regarding members
p1400
aVsection 54957
p1401
aVsection 54956
p1402
aVsection 54954
p1403
aVpublic
p1404
aVwishing to
p1405
aVcason director
p1406
aVland agreement at
p1407
aVopen session at
p1408
aVeducation center
p1409
aVkaren poon
p1410
aVhours
p1411
aVsuperintendent of educational
p1412
aVnovember
p1413
aVthe proposed adoption
p1414
aV01 discussion
p1415
aVcompliance
p1416
aVhow citizens
p1417
aVwho wish to
p1418
aVprior
p1419
aVjenna vega
p1420
aV11 board of
p1421
aVaction
p1422
aVfacilities consent
p1423
aVand acted on
p1424
aVfamily
p1425
aVrequiring
p1426
aVand explanation to
p1427
aVreceived into
p1428
aVof the order
p1429
aVnguyen asb
p1430
aVmay instruct
p1431
aVstaff and
p1432
aVlimit your
p1433
aVsilva
p1434
aVconferences
p1435
aVboard meeting
p1436
aVcertificated personnel actions
p1437
aVtwo
p1438
aVfunk superintendent
p1439
aVlinda da silva
p1440
aVunity care
p1441
aVread persons wishing
p1442
aVthe time the
p1443
aVacted on
p1444
aVschool district cari
p1445
aVon any item
p1446
aVthe superintendent and
p1447
aVand farshid samsami
p1448
aVof human resources
p1449
aVof the initial
p1450
aVrelated modifications
p1451
aVlawful expenses
p1452
aV19 2015 regular
p1453
aVnone
p1454
aVmembers of the
p1455
aVensure accommodation
p1456
aVfrom east side
p1457
aVand janice unger
p1458
aVdesign build delivery
p1459
aVthe meeting
p1460
aVparagraph
p1461
aV20 01 ratification
p1462
aVaudit committee
p1463
aVof teachers
p1464
aVpurchase orders
p1465
aVpurchases
p1466
aVthese items prior
p1467
aVimpacts
p1468
aV23 01 board
p1469
aVcortese
p1470
aVsan jose federation
p1471
aVaccept
p1472
aVanticipated litigation
p1473
aVoffice of education
p1474
aVsuperintendent may request
p1475
aVunagendized
p1476
aVremoved from the
p1477
aVinformation
p1478
aVbuilding and central
p1479
aVsuperintendent asserts
p1480
aVthe regular meeting
p1481
aVin closed session
p1482
aVknowledge in
p1483
aVat the end
p1484
aVclara county office
p1485
aVagenda for discussion
p1486
aVthe bond
p1487
aVpurchasing and
p1488
aV15 03 discussion
p1489
aVone motion there
p1490
aVjanice unger
p1491
aVor board
p1492
aVend of
p1493
aVprojects contract for
p1494
aV16 board
p1495
aVresponse
p1496
aV18 04 accept
p1497
aVclaim for
p1498
aV07 presentation discussion
p1499
aVtwo potential
p1500
aVthe board regarding
p1501
aVprojects completion
p1502
aVand how citizens
p1503
aVproject marcus battle
p1504
aVthree minutes
p1505
aVthe positive certification
p1506
aVservices at or
p1507
aV23 2015
p1508
aVitem no response
p1509
aVthrough
p1510
aVcommittee
p1511
aVfacilities andre bell
p1512
aVarchitect and
p1513
aVavenue
p1514
aV24
p1515
aV25
p1516
aV20
p1517
aV21
p1518
aV22
p1519
aV23
p1520
aVpresentation discussion and
p1521
aVthe 2015 16
p1522
aVreports that are
p1523
aVcalendar are
p1524
aVbiehl vice
p1525
aVservices operational items
p1526
aVprogram nate
p1527
aV12 educational services
p1528
aVimani village program
p1529
aVor action
p1530
aVcsba
p1531
aVceo
p1532
aVratification of contract
p1533
aVanticipated
p1534
aVsession action item
p1535
aVpegasus
p1536
aVaction regarding
p1537
aVbudget updates for
p1538
aVassociation
p1539
aVmarcus
p1540
aVwritten reports recommendation
p1541
aVor services in
p1542
aVpresented
p1543
aVinstruct
p1544
aVmay request
p1545
aV07 presentation
p1546
aVregarding imani village
p1547
aVpublic employment
p1548
aVregarding authorization
p1549
aVsections 16 20
p1550
aVclassified personnel actions
p1551
aVto three
p1552
aVreduce
p1553
aVof these
p1554
aVrequest specific items
p1555
aVof agenda
p1556
aVbrown act
p1557
aVlucas district
p1558
aVthis meeting in
p1559
aV22 2015 and
p1560
aV2016 california school
p1561
aVsilva director
p1562
aVevaluation
p1563
aVfrancine brissey
p1564
aVminutes of december
p1565
aVfacilities land
p1566
aVpleasant
p1567
aVasb
p1568
aV2015 16 first
p1569
aVspecial order of
p1570
aVinformal bond project
p1571
aVmembers
p1572
aVfor consideration by
p1573
aVdistrict to make
p1574
aVall items
p1575
aVresources consent action
p1576
aVamerican
p1577
aVpublic meeting
p1578
aV05 conference with
p1579
aVlitigation pursuant
p1580
aVbond capital
p1581
aVcareer services
p1582
aVelection frank
p1583
aVdirector of purchasing
p1584
aVboard member or
p1585
aVnot achievable
p1586
aVregarding items
p1587
aVorder of
p1588
aVaccordance with
p1589
aVin order
p1590
aVand andre
p1591
aVeast side aces
p1592
aVsanta clara
p1593
aVthe brown
p1594
aVenable the
p1595
aVmay speak
p1596
aVor district
p1597
aV01 mt pleasant
p1598
aVresources operational items
p1599
aVstatement
p1600
aVpiedmont
p1601
aVthe meeting will
p1602
aVitems prior to
p1603
aVcall to
p1604
aVprogram manager sgi
p1605
aVda silva director
p1606
aVagenda and all
p1607
aVfacilities consent action
p1608
aVorders to purchase
p1609
aVdesign build
p1610
aVcapital projects contract
p1611
aVupon request the
p1612
aVarchitect
p1613
aVcounsel anticipated litigation
p1614
aVitems on calendar
p1615
aVexisting litigation
p1616
aVpiedmont hills
p1617
aVfor the
p1618
aVaction to determine
p1619
aVwith disability
p1620
aVdelegate assembly
p1621
aVbe enacted
p1622
aVprojects completion or
p1623
aVcio cari
p1624
aVthe brown act
p1625
aVthe office
p1626
aV19 02 ratify
p1627
aV54954 and
p1628
aVmembers of
p1629
aVand adopt second
p1630
aValso
p1631
aVfacilities land agreement
p1632
aVbuild
p1633
aVagenda however
p1634
aVthe public
p1635
aVclassified management
p1636
aVbid build process
p1637
aVensure accommodation and
p1638
aVthe projects completion
p1639
aV72
p1640
aVsignificant
p1641
aVservices
p1642
aVaction calendar
p1643
aVsalary
p1644
aVhearing at
p1645
aV10 2015 annual
p1646
aVany subject not
p1647
aVand janice
p1648
aVprojects purchasing
p1649
aVapprovals and recommendations
p1650
aV01 board
p1651
aVboard policy 3100
p1652
aVron
p1653
aVscholarship
p1654
aVgold
p1655
aVand capital
p1656
aVwith the americans
p1657
aVaccommodations
p1658
aVscholarship funds
p1659
aVsession
p1660
aVbudget marcus battle
p1661
aVon agenda
p1662
aVunder this section
p1663
aVassistant superintendent of
p1664
aVof contract
p1665
aVmake available this
p1666
aVthis meeting
p1667
aVkaren poon director
p1668
aVcentral
p1669
aVyou need special
p1670
aVhis
p1671
aVthe board on
p1672
aVthe board of
p1673
aVsection 54954 and
p1674
aVthe san jose
p1675
aVmileage to conferences
p1676
aVpublic employee appointment
p1677
aVhispanic foundation
p1678
aVvillage program
p1679
aV24 01
p1680
aVfor professional
p1681
aVsuperintendent communications comments
p1682
aVletter for the
p1683
aVrecommendations
p1684
aVbusiness services linda
p1685
aVof allegiance
p1686
aVand or removed
p1687
aVart
p1688
aVbe enacted in
p1689
aVor district staff
p1690
aVwith legal
p1691
aVwith disabilities act
p1692
aVsee
p1693
aVasb president
p1694
aVcommunications comments
p1695
aVare
p1696
aVvan le
p1697
aVat 408
p1698
aVthe entrance
p1699
aV23 02 chris
p1700
aV3100 budget marcus
p1701
aVnot on
p1702
aVplease
p1703
aVregular meeting
p1704
aVappropriate alternative
p1705
aVavailable
p1706
aVthis time
p1707
aVsession at approximately
p1708
aVmanagement and
p1709
aVnguyen asb president
p1710
aVagreement at
p1711
aV19 01 ratify
p1712
aVnegotiations for proposition
p1713
aVor removed
p1714
aVcompletion or
p1715
aVreceived into the
p1716
aV18 03 approve
p1717
aVmeeting in
p1718
aVannual
p1719
aV21 written reports
p1720
aVmileage to
p1721
aVof pay
p1722
aVthe consent
p1723
aVto be
p1724
aVapprove
p1725
aVhis knowledge
p1726
aVbelow 50 000
p1727
aVneed special assistance
p1728
aVbell
p1729
aVcome to the
p1730
aVacted
p1731
aVallegiance
p1732
aVtwo potential case
p1733
aVwill reduce
p1734
aV10 to receive
p1735
aVto the board
p1736
aVwith legal counsel
p1737
aVvillage
p1738
aVassociation csba
p1739
aV2015 annual organizational
p1740
aVof governor budget
p1741
aVschool employees association
p1742
aVbe discussed in
p1743
aV00
p1744
aVat future meeting
p1745
aVlabor negotiators
p1746
aVpegasus high
p1747
aVchange
p1748
aVmaintenance
p1749
aVtwo potential cases
p1750
aVmeeting
p1751
aVpattie cortese member
p1752
aVfollowing business
p1753
aVeast side teachers
p1754
aV18 04
p1755
aVpersons with
p1756
aV17 educational
p1757
aV18 01
p1758
aV18 02
p1759
aV18 03
p1760
aVbest of
p1761
aVsuperintendent asserts that
p1762
aVlocal 957 aft
p1763
aVadopt salary
p1764
aVthe order indicated
p1765
aVformats for
p1766
aVwill then adjourn
p1767
aV03 approve minutes
p1768
aVbudget
p1769
aVgovernor
p1770
aVinto the
p1771
aVformats
p1772
aVpoon director of
p1773
aVboard regarding closed
p1774
aVaction have been
p1775
aVbelow 25
p1776
aVitems listed
p1777
aVfor the record
p1778
aVcortese member
p1779
aVread written
p1780
aVdisabilities act
p1781
aVinterim report
p1782
aVpresented february
p1783
aVdated october 22
p1784
aVfrom the consent
p1785
aVcsea
p1786
aVparagraph of
p1787
aVgrant
p1788
aVboards association csba
p1789
aVarrangements to
p1790
aVto determine that
p1791
aVroll call
p1792
aVorders
p1793
aVeast side union
p1794
aVand public comment
p1795
aVbusiness services consent
p1796
aVwil cason
p1797
aVsuccess center
p1798
aV2016 california
p1799
aVof business
p1800
aV000
p1801
aVall items listed
p1802
aVout to the
p1803
aVregular board meeting
p1804
aVjanice
p1805
aVtask
p1806
aVand tim
p1807
aVat approximately
p1808
aVperson
p1809
aVprogram manager
p1810
aVassociate superintendent of
p1811
aVjoanne nguyen
p1812
aVratification of
p1813
aVgold request form
p1814
aVrate of pay
p1815
aVart and administration
p1816
aVfrom san jose
p1817
aValternative
p1818
aV15 facilities operational
p1819
aVdiscipline
p1820
aVservices andre bell
p1821
aVsalary schedule for
p1822
aVinformal
p1823
aVto adopt salary
p1824
aVfunds for alternative
p1825
aVregarding imani
p1826
aVmembers who
p1827
aVenacted in one
p1828
aVadministrative
p1829
aVaction regarding 2016
p1830
aVmetroed
p1831
aVsuperintendent of
p1832
aVbid
p1833
aVboard considers
p1834
aVpleasant high school
p1835
aVorder roll call
p1836
aVresolution 2015 2016
p1837
aVbudget marcus
p1838
aVprojects
p1839
aVmodifications
p1840
aVgovernment code
p1841
aVmanager sgi
p1842
aVcounsel will
p1843
aVdistrict staff and
p1844
aVof trustees will
p1845
aVcommunications
p1846
aV23 board
p1847
aVgeneral purchasing
p1848
aVindependence high
p1849
aV2015 2016
p1850
aV05 regarding the
p1851
aVrequest that
p1852
aVeducational services and
p1853
aVof east
p1854
aVentrance of
p1855
aValternative formats
p1856
aVof bond
p1857
aV12 approving
p1858
aVthe entrance to
p1859
aV13 01
p1860
aV13 03
p1861
aV13 02
p1862
aVtransactions
p1863
aVpublic hearing operational
p1864
aVper
p1865
aVcabuag
p1866
aVschools start times
p1867
aVoverfelt high school
p1868
aVminutes each
p1869
aVboard room
p1870
aVto closed
p1871
aVrecords approvals
p1872
aVbe
p1873
aVcupccaa
p1874
aVof these items
p1875
aVagreement
p1876
aVmust fill
p1877
aVexpulsion none
p1878
aVof governor
p1879
aVexplanation to audience
p1880
aVto this
p1881
aVaft afl
p1882
aVby
p1883
aVno discussion
p1884
aV12 02 discussion
p1885
aVhuman resources operational
p1886
aVitem on agenda
p1887
aVof teachers aft
p1888
aVclassified management and
p1889
aVbusiness services karen
p1890
aVwill enable the
p1891
aV01 roll call
p1892
aVregarding family college
p1893
aVat the entrance
p1894
aVand linda da
p1895
aVsuperintendent operational items
p1896
aVthere will
p1897
aVinto
p1898
aVhearing operational
p1899
aVmartinez
p1900
aVthe agenda
p1901
aVappropriate
p1902
aVadopt resolution
p1903
aVboard will be
p1904
aVyou need
p1905
aVrecess to closed
p1906
aVthe board must
p1907
aVto ensure accommodation
p1908
aVconfidential salary schedule
p1909
aVat 00
p1910
aV19 03 ratify
p1911
aVat 00 in
p1912
aVunger capital projects
p1913
aVaccordance with the
p1914
aVemployees cari vaeth
p1915
aVsections
p1916
aVfor substitute
p1917
aVservices operational
p1918
aVhave been carried
p1919
aVboard or
p1920
aVboard of
p1921
aVarrangements to ensure
p1922
aV14 01
p1923
aV14 02
p1924
aVboard on
p1925
aVitem on
p1926
aVthe law
p1927
aVsunshine the
p1928
aVcid
p1929
aVcio
p1930
aVeducation center board
p1931
aVupdates for
p1932
aVpublic comment
p1933
aVlawful expenses mileage
p1934
aVschool facilities
p1935
aVcalled
p1936
aVbe taken
p1937
aVconfidential salary
p1938
aVassociated
p1939
aVitems be
p1940
aVhuman resources
p1941
aVaccessibility
p1942
aVthrough the
p1943
aVcall to order
p1944
aVsession in
p1945
aVservices consent
p1946
aVorganizational
p1947
aVannual organizational and
p1948
aVtrustees superintendent operational
p1949
aVmembers who wish
p1950
aVregarding the california
p1951
aVchange orders to
p1952
aValso make
p1953
aVof the brown
p1954
aV06 discussion and
p1955
aVto subdivision of
p1956
aVto the meeting
p1957
aVand the
p1958
aV957
p1959
aV13 01 discussion
p1960
aVstart times task
p1961
aVtimes task force
p1962
aVletter for
p1963
aVexplaining
p1964
aVresponse is required
p1965
aVthe design
p1966
aV13 business
p1967
aVprogram wil
p1968
aV03 approve change
p1969
aVservices consent action
p1970
aVof human
p1971
aVgeneral purchasing project
p1972
aVwhich is located
p1973
aVreading of
p1974
aVteachers local
p1975
aVagency designated
p1976
aVemployees cari
p1977
aV00 education
p1978
aVpreclude any
p1979
aVland
p1980
aVto adopt
p1981
aVvice
p1982
aVrequired
p1983
aVwith this meeting
p1984
aVadoption of agenda
p1985
aVmanuel herrera clerk
p1986
aVas an unagendized
p1987
aVon calendar
p1988
aVitems or any
p1989
aVcode
p1990
aVaction is taken
p1991
aVat james
p1992
aVschool and
p1993
aVexisting
p1994
aVproposition
p1995
aVprovisions of the
p1996
aVpurchases for statement
p1997
aVgo
p1998
aVinstruct the
p1999
aVdelivery for
p2000
aVapprove student
p2001
aV12 01 presentation
p2002
aVthe americans
p2003
aVaction to
p2004
aVdecember 10
p2005
aV03 public employment
p2006
aVboard must fill
p2007
aVitems under
p2008
aVend of closed
p2009
aVresources
p2010
aVmt pleasant
p2011
aVformats for persons
p2012
aVappropriate alternative formats
p2013
aVof trustees superintendent
p2014
aVis called please
p2015
aVpersonnel actions
p2016
aV04 presentation
p2017
aV95133
p2018
aVlinda da
p2019
aVbeen carried
p2020
aVinformation explaining board
p2021
aV16 first interim
p2022
aVfamily college success
p2023
aV21 are written
p2024
aVcard purchases for
p2025
aVnguyen president
p2026
aVregarding items to
p2027
aVthe podium
p2028
aV2016 17
p2029
aVnovember 19
p2030
aVpledge
p2031
aV2016 12
p2032
aVsuperintendent and
p2033
aVthe following business
p2034
aVfill out gold
p2035
aV11 board
p2036
aVtrustees superintendent consent
p2037
aV21 01 receive
p2038
aVactions presented
p2039
aVspecial recognition
p2040
aVschool field trips
p2041
aVpublic employee
p2042
aVcapital
p2043
aVapproximately 05 regarding
p2044
aVdiscipline dismissal
p2045
aVschool facilities land
p2046
aVcompletion
p2047
aVjose federation
p2048
aVfor substitute classified
p2049
aVconsideration
p2050
aVof the board
p2051
aVjose federation of
p2052
aV39
p2053
aVreceive
p2054
aVstudent aide
p2055
aVact government
p2056
aV03 recess
p2057
aVat this
p2058
aVare written
p2059
aVfrom east
p2060
aVrate of
p2061
aVaide personnel
p2062
aVfor proposition
p2063
aVpattie cortese
p2064
aV17 01
p2065
aVregarding the proposed
p2066
aVwil
p2067
aVclara
p2068
aVcenter anyone
p2069
aVmeeting in appropriate
p2070
aVsgi
p2071
aVitem no
p2072
aVmember lawful
p2073
aVorder indicated
p2074
aVin compliance
p2075
aVsummary report of
p2076
aVor board member
p2077
aVuse
p2078
aVfrom
p2079
aVagenda information
p2080
aVmodernization project
p2081
aV01 presentation discussion
p2082
aVand how
p2083
aV02 receive summary
p2084
aVelection frank biehl
p2085
aVdecember
p2086
aV54954 preclude
p2087
aV01 roll
p2088
aV18 02 approve
p2089
aVto address the
p2090
aVpolicy 3100
p2091
aVcarried
p2092
aVof december 10
p2093
aVthis
p2094
aVjames lick
p2095
aValso make available
p2096
aVaccounting and janice
p2097
aVsamsami bond
p2098
aVstudent services operational
p2099
aVthat items
p2100
aVactions maintenance
p2101
aVmeeting of
p2102
aVpotential case
p2103
aVvander zee
p2104
aVhigh school district
p2105
aVfor discussion and
p2106
aVprocess
p2107
aVconsideration by
p2108
aVhigh
p2109
aVfor proposition 39
p2110
aV05 regarding
p2111
aVaction regarding authorization
p2112
aV000 marcus
p2113
aVafl
p2114
aVservices and tim
p2115
aVeducational
p2116
aVadjourns
p2117
aVof the education
p2118
aVservices karen
p2119
aVratify cupccaa
p2120
aVlocated
p2121
aVaft
p2122
aVmitigations marcus battle
p2123
aVadministrator
p2124
aVcertificated administrative
p2125
aVincluding auxiliary aids
p2126
aVinformation explaining
p2127
aVcome to
p2128
aV14 03 discussion
p2129
aVon the agenda
p2130
aVsilicon valley
p2131
aVnot achievable through
p2132
aVpodium state
p2133
aVpublic hearing at
p2134
aV01 presentation
p2135
aVnate falkner
p2136
aVor
p2137
aVmeeting will enable
p2138
aVof educational services
p2139
aVagenda
p2140
aVto order roll
p2141
aVorder roll
p2142
aVsubdivision of section
p2143
aV03 hold public
p2144
aVcalendar are considered
p2145
aVor services
p2146
aVcupccaa informal
p2147
aVjoanne
p2148
aVincluding
p2149
aVassociation esta
p2150
aVle
p2151
aVreports that
p2152
aVof his
p2153
aVdiscussed and acted
p2154
aVlabor
p2155
aVpresident ceo
p2156
aV2015
p2157
aVreading of proposed
p2158
aV2016
p2159
aVof cabrales and
p2160
aVschool district to
p2161
aVare considered by
p2162
aVboard to
p2163
aVplease come
p2164
aVthe consent action
p2165
aVcontract for
p2166
aVthere will be
p2167
aVpurchasing manager
p2168
aVsuccessor
p2169
aVfebruary
p2170
aVsession will
p2171
aVpreclude
p2172
aVadjournment
p2173
aV01 receive
p2174
aVboard may
p2175
aVfor the 2015
p2176
aVstatement dated
p2177
aVthe initial proposal
p2178
aVand accessibility
p2179
aVaccommodations including auxiliary
p2180
aVfor professional services
p2181
aVthe 2015
p2182
aVeducation the positive
p2183
aVlawful
p2184
aVmotion unless members
p2185
aVrelated
p2186
aVafl cio to
p2187
aVcenter at
p2188
aV12 approving use
p2189
aVambassadors
p2190
aVthis time the
p2191
aVvaeth associate superintendent
p2192
aVexpenses mileage to
p2193
aVschool boards
p2194
aVsignificant exposure
p2195
aVregarding members of
p2196
aVcentral quad
p2197
aVthe following
p2198
aVdismissal
p2199
aVfor alternative education
p2200
aVto conferences
p2201
aVtaken however
p2202
aV02 piedmont
p2203
aVaccept report of
p2204
aVachievable through the
p2205
aVcalled please
p2206
aVregarding imentor program
p2207
aVsuperintendents conference
p2208
aVpresident adjourns
p2209
aVrecess to
p2210
aVeducational services student
p2211
aVand central
p2212
aVproject marcus
p2213
aVconsidered by the
p2214
aVto approve and
p2215
aVorder of business
p2216
aVzee assistant
p2217
aVsan jose ca
p2218
aVorder to
p2219
aV01 receive from
p2220
aVschool music
p2221
aVglenn vander zee
p2222
aVthe entrance of
p2223
aVclosed session items
p2224
aVtimes
p2225
aVratification
p2226
aVand central quad
p2227
aVmaintenance and facilities
p2228
aVfacilities operational
p2229
aV01 hold
p2230
aVteachers association
p2231
aVof government
p2232
aVan item
p2233
aVpresentation discussion
p2234
aV01 adopt resolution
p2235
aVbell director of
p2236
aVor accommodations including
p2237
aVcenter property chris
p2238
aVmust fill out
p2239
aVstart
p2240
aVagenda as
p2241
aVitems board
p2242
aVcode section
p2243
aVnotification 72
p2244
aV05 presentation
p2245
aV25 01
p2246
aVwhen your
p2247
aVgovernor budget
p2248
aVwhich is
p2249
aVpublic employee performance
p2250
aVand administration building
p2251
aVexplanation
p2252
aV18 business
p2253
aVboard may instruct
p2254
aVinitial proposal for
p2255
aVyour name for
p2256
aVagendize
p2257
aVlocated near
p2258
aVthese items
p2259
aVsuperintendent of business
p2260
aVcid 190
p2261
aVpoon director
p2262
aVexposure to litigation
p2263
aVsuperintendent consent action
p2264
aVon any subject
p2265
aVspecial assistance
p2266
aVthe office of
p2267
aVlegal counsel will
p2268
aVratify approve student
p2269
aVin closed
p2270
aV17 educational services
p2271
aVlocal 957
p2272
aVimpacts and
p2273
aV39 charter
p2274
aVof proposed
p2275
aVhigh school ron
p2276
aVhave
p2277
aVfrom santa
p2278
aVneed
p2279
aVwill be read
p2280
aVprocess marcus
p2281
aVcosts expedite the
p2282
aV02 approve purchase
p2283
aVagency
p2284
aVpurchasing
p2285
aVwith this
p2286
aVsecond reading
p2287
aVwhich
p2288
aVlinda
p2289
aVsubject
p2290
aVmileage
p2291
aVunless
p2292
aVasserts
p2293
aVthe board or
p2294
aVto order
p2295
aVwho
p2296
aVdiscussion and
p2297
aVstate your
p2298
aVside teachers
p2299
aVfor discussion
p2300
aVdelivery
p2301
aVmotion there
p2302
aVperson may
p2303
aVprior to
p2304
aVaids or
p2305
aVout of the
p2306
aVaction at
p2307
aVcenter at james
p2308
aVassistant superintendent
p2309
aV02 discussion
p2310
aVadministration building
p2311
aVaction as
p2312
aVrecess
p2313
aVat the
p2314
aVconsent action calendar
p2315
aVmake reasonable
p2316
aV02 chris
p2317
aVupdates for 2016
p2318
aVstaff
p2319
aVlitigation
p2320
aVknowledge
p2321
aVnegotiations for
p2322
aVcounsel anticipated
p2323
aVoperational
p2324
aVfrom the
p2325
aVact government code
p2326
aVoctober 22 2015
p2327
aVprovide features not
p2328
aVemployee
p2329
aVlocal
p2330
aVsuccess center at
p2331
aVagency designated representatives
p2332
aVcompliance with the
p2333
aVbid build
p2334
aVagenda closed
p2335
aVreasonable arrangements to
p2336
aVto approve distribution
p2337
aVle member
p2338
aVprocedures
p2339
aVagenda must
p2340
aVspecific items
p2341
aVreport on closed
p2342
aVmay speak at
p2343
aV01 hold public
p2344
aVto closed session
p2345
aVlitigation pursuant to
p2346
aVbond project marcus
p2347
aV01 legal
p2348
aVany person may
p2349
aVyour name
p2350
aVmay address
p2351
aVnate falkner executive
p2352
aVglenn vander
p2353
aVfacility upgrades
p2354
aVapprove the
p2355
aV01 mt
p2356
aVboard meeting procedures
p2357
aVplaced
p2358
aVdiscussed in
p2359
aVwritten
p2360
aVitems or
p2361
aVpursuant to
p2362
aVperson may address
p2363
aVroutine
p2364
aVchange orders
p2365
aVfacilities operational items
p2366
aVbe taken however
p2367
aVat or below
p2368
aVfor persons
p2369
aVrequest the district
p2370
aVworkshops meetings
p2371
aVmeeting agenda persons
p2372
aVas per
p2373
aVdistribution
p2374
aVannouncement and public
p2375
aVminutes of november
p2376
aVroom at approximately
p2377
aVapprove the contract
p2378
aVcareer
p2379
aVemployment public employee
p2380
aVemployee organizations
p2381
aVgrant glenn
p2382
aVbusiness transactions personnel
p2383
aVgo for
p2384
aVadministrative rate
p2385
aV347 5010 notification
p2386
aVunder section 21
p2387
aVcomment
p2388
aVplease come to
p2389
aVca
p2390
aVboard room at
p2391
aVnear the
p2392
aVthe time
p2393
aVboard must
p2394
aVrequest an
p2395
aVconsideration by the
p2396
aVpurchases for
p2397
aVschool ron gonzales
p2398
aVemployment public
p2399
aVproposal
p2400
aVcenter anyone wishing
p2401
aVchris funk superintendent
p2402
aVinformation is located
p2403
aVin accordance with
p2404
aVcollege success
p2405
aVamerican federation
p2406
aVoffice of the
p2407
aVschool field
p2408
aVpublic members who
p2409
aVgeneral
p2410
aV19 human
p2411
aVfeatures not
p2412
aVof december
p2413
aVmotion unless
p2414
aVit scholarship funds
p2415
aVin appropriate
p2416
aVsuperintendent and or
p2417
aVservices in
p2418
aVreceive and adopt
p2419
aV02 public
p2420
aVregarding 2016 california
p2421
aV06 conference with
p2422
aV25 adjournment
p2423
aVboard of trustees
p2424
aVrecommendations requiring board
p2425
aVthe bond capital
p2426
aVarrangements
p2427
aVshall also make
p2428
aV21 01
p2429
aV21 02
p2430
aVand recommendations
p2431
aVhowever the
p2432
aVadministration
p2433
aVchris funk
p2434
aVmember
p2435
aVof construction
p2436
aVunity
p2437
aVany item
p2438
aVto agendize the
p2439
aVimpacts and mitigations
p2440
aVany person
p2441
aVfamily college
p2442
aVorganizational and regular
p2443
aVservices at
p2444
aVclosed session will
p2445
aVregarding closed session
p2446
aVjose ca 95133
p2447
aVupon
p2448
aVat james lick
p2449
aVstudent
p2450
aVproposal for
p2451
aVboard on closed
p2452
aVfrom santa clara
p2453
aVaudit
p2454
aV04 presentation and
p2455
aVcenter
p2456
aVschool growth
p2457
aVvan le member
p2458
aVof career services
p2459
aVaccommodation and accessibility
p2460
aVservices in order
p2461
aVratify
p2462
aVexecutive
p2463
aVagenda information explaining
p2464
aVinterim
p2465
aVthe superintendent to
p2466
aVat approximately 00
p2467
aVcollaborative of east
p2468
aVcari vaeth associate
p2469
aVat approximately 05
p2470
aVdistrict shall also
p2471
aVresume at
p2472
aVwill enable
p2473
aVbusiness transactions
p2474
aVadoption
p2475
aVpositive certification
p2476
aVwritten reports that
p2477
aVas
p2478
aVnate
p2479
aVapprove school
p2480
aVof subdivision
p2481
aVprovisions
p2482
aVgovernment
p2483
aVis taken
p2484
aVauxiliary aids
p2485
aV19 human resources
p2486
aVreceive from
p2487
aVsuccess
p2488
aVitems may speak
p2489
aVfalkner executive
p2490
aVdirector imentor bay
p2491
aVof section
p2492
aVboard special recognition
p2493
aVamendment
p2494
aVratify cupccaa informal
p2495
aVhold public hearing
p2496
aVupgrades
p2497
aVadopt substitute classified
p2498
aVlianna martinez
p2499
aVgrowth
p2500
aVrecommendation
p2501
aVfor successor
p2502
aVemployment
p2503
aVrecognition
p2504
aVwill be
p2505
aV14 human resources
p2506
aVthe record
p2507
aVthat design
p2508
aVand adopt
p2509
aVvaeth
p2510
aVand will
p2511
aVschedule
p2512
aValternative education
p2513
aVbiehl
p2514
aVthe order
p2515
aVout gold request
p2516
aVside aces
p2517
aVregarding independence
p2518
aVitems board discussion
p2519
aVschedule cari
p2520
aVboards
p2521
aVof trustees please
p2522
aVvaeth associate
p2523
aV408 347 5010
p2524
aVfrancine
p2525
aVtaken however the
p2526
aVnguyen director of
p2527
aVbudget updates
p2528
aVaide personnel actions
p2529
aVsee item on
p2530
aVitem for
p2531
aVglenn
p2532
aVnovember 19 2015
p2533
aVin one
p2534
aV02 public employee
p2535
aVcounsel will report
p2536
aVpublic comment regarding
p2537
aVpegasus high school
p2538
aVvan
p2539
aVthrough the design
p2540
aV06 discussion
p2541
aVamerican federation of
p2542
aVfollowing business transactions
p2543
aVresolution 2015
p2544
aV02 approve
p2545
aVadopt substitute
p2546
aVpublic may address
p2547
aVservices linda da
p2548
aVfunds
p2549
aVandre bell
p2550
aV01 legal counsel
p2551
aVadministrators
p2552
aVdistribution of
p2553
aVconstruction
p2554
aVcontract from
p2555
aVrequired from the
p2556
aV02 receive
p2557
aVmake available
p2558
aVdirector of career
p2559
aVauxiliary
p2560
aV03 hold
p2561
aVno items
p2562
aVbiehl board vice
p2563
aVof education unity
p2564
aVwish
p2565
aVitems on
p2566
aVrecord
p2567
aVbelow
p2568
aVgonzales president
p2569
aVlimit
p2570
aVwelcome and explanation
p2571
aVsenior program marcus
p2572
aVminutes
p2573
aVexplaining board
p2574
aVresume at the
p2575
aVadoption of the
p2576
aVentrance of the
p2577
aVeducation unity care
p2578
aV01 adopt
p2579
aV50 000 marcus
p2580
aVagenda and
p2581
aVadopt second reading
p2582
aVeducation
p2583
aVjenna
p2584
aVcason
p2585
aVbeen carried out
p2586
aVcosts expedite
p2587
aVinto the public
p2588
aVof government code
p2589
aVother
p2590
aVspecial
p2591
aVfor pegasus
p2592
aVand the post
p2593
aV16 03 approve
p2594
aVout
p2595
aVapprove and allocate
p2596
aVdesignated representatives
p2597
aVaccessibility to
p2598
aVmusic art and
p2599
aVaccommodations including
p2600
aVroom at
p2601
aVbe placed
p2602
aVboard liaisons
p2603
aV15 04
p2604
aVpathways
p2605
aVroutine and
p2606
aVpublic record
p2607
aVexposure
p2608
aVname is called
p2609
aVrequest that items
p2610
aVfederation of teachers
p2611
aVbay area
p2612
aVgonzales
p2613
aVsubject not
p2614
aVimani
p2615
aVpublic hearing
p2616
aVpersons wishing
p2617
a.