(lp0
cdecimal
Decimal
p1
(S'59.760'
p2
tp3
Rp4
ag1
(S'82.320'
p5
tp6
Rp7
ag1
(S'84.240'
p8
tp9
Rp10
ag1
(S'85.680'
p11
tp12
Rp13
ag1
(S'86.880'
p14
tp15
Rp16
ag1
(S'87.120'
p17
tp18
Rp19
ag1
(S'89.760'
p20
tp21
Rp22
ag1
(S'91.200'
p23
tp24
Rp25
ag1
(S'98.394'
p26
tp27
Rp28
ag1
(S'98.640'
p29
tp30
Rp31
ag1
(S'102.713'
p32
tp33
Rp34
ag1
(S'108.000'
p35
tp36
Rp37
ag1
(S'109.440'
p38
tp39
Rp40
ag1
(S'114.000'
p41
tp42
Rp43
ag1
(S'121.436'
p44
tp45
Rp46
ag1
(S'121.920'
p47
tp48
Rp49
ag1
(S'122.880'
p50
tp51
Rp52
ag1
(S'122.883'
p53
tp54
Rp55
ag1
(S'126.960'
p56
tp57
Rp58
ag1
(S'131.760'
p59
tp60
Rp61
ag1
(S'139.430'
p62
tp63
Rp64
ag1
(S'146.160'
p65
tp66
Rp67
ag1
(S'146.400'
p68
tp69
Rp70
ag1
(S'152.400'
p71
tp72
Rp73
ag1
(S'154.320'
p74
tp75
Rp76
ag1
(S'155.280'
p77
tp78
Rp79
ag1
(S'155.520'
p80
tp81
Rp82
ag1
(S'158.880'
p83
tp84
Rp85
ag1
(S'159.360'
p86
tp87
Rp88
ag1
(S'176.640'
p89
tp90
Rp91
ag1
(S'179.760'
p92
tp93
Rp94
ag1
(S'183.840'
p95
tp96
Rp97
ag1
(S'184.320'
p98
tp99
Rp100
ag1
(S'189.360'
p101
tp102
Rp103
ag1
(S'193.680'
p104
tp105
Rp106
ag1
(S'210.960'
p107
tp108
Rp109
ag1
(S'213.600'
p110
tp111
Rp112
ag1
(S'218.160'
p113
tp114
Rp115
ag1
(S'231.600'
p116
tp117
Rp118
ag1
(S'241.440'
p119
tp120
Rp121
ag1
(S'246.718'
p122
tp123
Rp124
ag1
(S'248.400'
p125
tp126
Rp127
ag1
(S'260.174'
p128
tp129
Rp130
ag1
(S'271.920'
p131
tp132
Rp133
ag1
(S'308.880'
p134
tp135
Rp136
ag1
(S'314.880'
p137
tp138
Rp139
ag1
(S'322.320'
p140
tp141
Rp142
ag1
(S'380.880'
p143
tp144
Rp145
ag1
(S'396.720'
p146
tp147
Rp148
ag1
(S'446.640'
p149
tp150
Rp151
ag1
(S'489.600'
p152
tp153
Rp154
a.