(lp0
S'HOJMDM+TimesNewRomanPSMT'
p1
aS'KRQNEA+TimesNewRomanPS-BoldMT'
p2
aS'BHNVIZ+TimesNewRomanPS-ItalicMT'
p3
aS'ILMRGD+ArialMT'
p4
aS'UTUEYF+CourierNewPSMT'
p5
aS'FWKILM+Wingdings-Regular'
p6
aS'QDKCTM+TimesNewRomanPS-BoldItalicMT'
p7
aS'IYNTFU+Verdana'
p8
a.